
ATmega162.elf:     file format elf32-avr

Sections:
Idx Name          Size      VMA       LMA       File off  Algn
  0 .data         00000250  00800100  000018f6  0000198a  2**0
                  CONTENTS, ALLOC, LOAD, DATA
  1 .text         000018f6  00000000  00000000  00000094  2**1
                  CONTENTS, ALLOC, LOAD, READONLY, CODE
  2 .bss          00000024  00800350  00800350  00001bda  2**0
                  ALLOC
  3 .comment      0000005c  00000000  00000000  00001bda  2**0
                  CONTENTS, READONLY
  4 .debug_aranges 000002f8  00000000  00000000  00001c36  2**0
                  CONTENTS, READONLY, DEBUGGING
  5 .debug_info   00002ca0  00000000  00000000  00001f2e  2**0
                  CONTENTS, READONLY, DEBUGGING
  6 .debug_abbrev 0000126d  00000000  00000000  00004bce  2**0
                  CONTENTS, READONLY, DEBUGGING
  7 .debug_line   000012b2  00000000  00000000  00005e3b  2**0
                  CONTENTS, READONLY, DEBUGGING
  8 .debug_frame  0000064c  00000000  00000000  000070f0  2**2
                  CONTENTS, READONLY, DEBUGGING
  9 .debug_str    000008da  00000000  00000000  0000773c  2**0
                  CONTENTS, READONLY, DEBUGGING
 10 .debug_loc    0000111a  00000000  00000000  00008016  2**0
                  CONTENTS, READONLY, DEBUGGING
 11 .debug_ranges 00000238  00000000  00000000  00009130  2**0
                  CONTENTS, READONLY, DEBUGGING

Disassembly of section .text:

00000000 <__vectors>:
       0:	0c 94 26 01 	jmp	0x24c	; 0x24c <__ctors_end>
       4:	0c 94 c0 01 	jmp	0x380	; 0x380 <__vector_1>
       8:	0c 94 43 01 	jmp	0x286	; 0x286 <__bad_interrupt>
       c:	0c 94 43 01 	jmp	0x286	; 0x286 <__bad_interrupt>
      10:	0c 94 43 01 	jmp	0x286	; 0x286 <__bad_interrupt>
      14:	0c 94 43 01 	jmp	0x286	; 0x286 <__bad_interrupt>
      18:	0c 94 43 01 	jmp	0x286	; 0x286 <__bad_interrupt>
      1c:	0c 94 43 01 	jmp	0x286	; 0x286 <__bad_interrupt>
      20:	0c 94 43 01 	jmp	0x286	; 0x286 <__bad_interrupt>
      24:	0c 94 43 01 	jmp	0x286	; 0x286 <__bad_interrupt>
      28:	0c 94 43 01 	jmp	0x286	; 0x286 <__bad_interrupt>
      2c:	0c 94 43 01 	jmp	0x286	; 0x286 <__bad_interrupt>
      30:	0c 94 43 01 	jmp	0x286	; 0x286 <__bad_interrupt>
      34:	0c 94 43 01 	jmp	0x286	; 0x286 <__bad_interrupt>
      38:	0c 94 43 01 	jmp	0x286	; 0x286 <__bad_interrupt>
      3c:	0c 94 43 01 	jmp	0x286	; 0x286 <__bad_interrupt>
      40:	0c 94 43 01 	jmp	0x286	; 0x286 <__bad_interrupt>
      44:	0c 94 43 01 	jmp	0x286	; 0x286 <__bad_interrupt>
      48:	0c 94 43 01 	jmp	0x286	; 0x286 <__bad_interrupt>
      4c:	0c 94 43 01 	jmp	0x286	; 0x286 <__bad_interrupt>
      50:	0c 94 43 01 	jmp	0x286	; 0x286 <__bad_interrupt>
      54:	0c 94 43 01 	jmp	0x286	; 0x286 <__bad_interrupt>
      58:	0c 94 43 01 	jmp	0x286	; 0x286 <__bad_interrupt>
      5c:	0c 94 43 01 	jmp	0x286	; 0x286 <__bad_interrupt>
      60:	0c 94 43 01 	jmp	0x286	; 0x286 <__bad_interrupt>
      64:	0c 94 43 01 	jmp	0x286	; 0x286 <__bad_interrupt>
      68:	0c 94 43 01 	jmp	0x286	; 0x286 <__bad_interrupt>
      6c:	0c 94 43 01 	jmp	0x286	; 0x286 <__bad_interrupt>

00000070 <__trampolines_end>:
      70:	00 00       	nop
      72:	00 00       	nop
      74:	00 00       	nop
      76:	00 5f       	subi	r16, 0xF0	; 240
      78:	00 00       	nop
      7a:	00 07       	cpc	r16, r16
      7c:	00 07       	cpc	r16, r16
      7e:	00 14       	cp	r0, r0
      80:	7f 14       	cp	r7, r15
      82:	7f 14       	cp	r7, r15
      84:	24 2a       	or	r2, r20
      86:	7f 2a       	or	r7, r31
      88:	12 23       	and	r17, r18
      8a:	13 08       	sbc	r1, r3
      8c:	64 62       	ori	r22, 0x24	; 36
      8e:	36 49       	sbci	r19, 0x96	; 150
      90:	55 22       	and	r5, r21
      92:	50 00       	.word	0x0050	; ????
      94:	05 03       	mulsu	r16, r21
      96:	00 00       	nop
      98:	00 1c       	adc	r0, r0
      9a:	22 41       	sbci	r18, 0x12	; 18
      9c:	00 00       	nop
      9e:	41 22       	and	r4, r17
      a0:	1c 00       	.word	0x001c	; ????
      a2:	08 2a       	or	r0, r24
      a4:	1c 2a       	or	r1, r28
      a6:	08 08       	sbc	r0, r8
      a8:	08 3e       	cpi	r16, 0xE8	; 232
      aa:	08 08       	sbc	r0, r8
      ac:	00 50       	subi	r16, 0x00	; 0
      ae:	30 00       	.word	0x0030	; ????
      b0:	00 08       	sbc	r0, r0
      b2:	08 08       	sbc	r0, r8
      b4:	08 08       	sbc	r0, r8
      b6:	00 60       	ori	r16, 0x00	; 0
      b8:	60 00       	.word	0x0060	; ????
      ba:	00 20       	and	r0, r0
      bc:	10 08       	sbc	r1, r0
      be:	04 02       	muls	r16, r20
      c0:	3e 51       	subi	r19, 0x1E	; 30
      c2:	49 45       	sbci	r20, 0x59	; 89
      c4:	3e 00       	.word	0x003e	; ????
      c6:	42 7f       	andi	r20, 0xF2	; 242
      c8:	40 00       	.word	0x0040	; ????
      ca:	42 61       	ori	r20, 0x12	; 18
      cc:	51 49       	sbci	r21, 0x91	; 145
      ce:	46 21       	and	r20, r6
      d0:	41 45       	sbci	r20, 0x51	; 81
      d2:	4b 31       	cpi	r20, 0x1B	; 27
      d4:	18 14       	cp	r1, r8
      d6:	12 7f       	andi	r17, 0xF2	; 242
      d8:	10 27       	eor	r17, r16
      da:	45 45       	sbci	r20, 0x55	; 85
      dc:	45 39       	cpi	r20, 0x95	; 149
      de:	3c 4a       	sbci	r19, 0xAC	; 172
      e0:	49 49       	sbci	r20, 0x99	; 153
      e2:	30 01       	movw	r6, r0
      e4:	71 09       	sbc	r23, r1
      e6:	05 03       	mulsu	r16, r21
      e8:	36 49       	sbci	r19, 0x96	; 150
      ea:	49 49       	sbci	r20, 0x99	; 153
      ec:	36 06       	cpc	r3, r22
      ee:	49 49       	sbci	r20, 0x99	; 153
      f0:	29 1e       	adc	r2, r25
      f2:	00 36       	cpi	r16, 0x60	; 96
      f4:	36 00       	.word	0x0036	; ????
      f6:	00 00       	nop
      f8:	56 36       	cpi	r21, 0x66	; 102
      fa:	00 00       	nop
      fc:	00 08       	sbc	r0, r0
      fe:	14 22       	and	r1, r20
     100:	41 14       	cp	r4, r1
     102:	14 14       	cp	r1, r4
     104:	14 14       	cp	r1, r4
     106:	41 22       	and	r4, r17
     108:	14 08       	sbc	r1, r4
     10a:	00 02       	muls	r16, r16
     10c:	01 51       	subi	r16, 0x11	; 17
     10e:	09 06       	cpc	r0, r25
     110:	32 49       	sbci	r19, 0x92	; 146
     112:	79 41       	sbci	r23, 0x19	; 25
     114:	3e 7e       	andi	r19, 0xEE	; 238
     116:	11 11       	cpse	r17, r1
     118:	11 7e       	andi	r17, 0xE1	; 225
     11a:	7f 49       	sbci	r23, 0x9F	; 159
     11c:	49 49       	sbci	r20, 0x99	; 153
     11e:	36 3e       	cpi	r19, 0xE6	; 230
     120:	41 41       	sbci	r20, 0x11	; 17
     122:	41 22       	and	r4, r17
     124:	7f 41       	sbci	r23, 0x1F	; 31
     126:	41 22       	and	r4, r17
     128:	1c 7f       	andi	r17, 0xFC	; 252
     12a:	49 49       	sbci	r20, 0x99	; 153
     12c:	49 41       	sbci	r20, 0x19	; 25
     12e:	7f 09       	sbc	r23, r15
     130:	09 01       	movw	r0, r18
     132:	01 3e       	cpi	r16, 0xE1	; 225
     134:	41 41       	sbci	r20, 0x11	; 17
     136:	51 32       	cpi	r21, 0x21	; 33
     138:	7f 08       	sbc	r7, r15
     13a:	08 08       	sbc	r0, r8
     13c:	7f 00       	.word	0x007f	; ????
     13e:	41 7f       	andi	r20, 0xF1	; 241
     140:	41 00       	.word	0x0041	; ????
     142:	20 40       	sbci	r18, 0x00	; 0
     144:	41 3f       	cpi	r20, 0xF1	; 241
     146:	01 7f       	andi	r16, 0xF1	; 241
     148:	08 14       	cp	r0, r8
     14a:	22 41       	sbci	r18, 0x12	; 18
     14c:	7f 40       	sbci	r23, 0x0F	; 15
     14e:	40 40       	sbci	r20, 0x00	; 0
     150:	40 7f       	andi	r20, 0xF0	; 240
     152:	02 04       	cpc	r0, r2
     154:	02 7f       	andi	r16, 0xF2	; 242
     156:	7f 04       	cpc	r7, r15
     158:	08 10       	cpse	r0, r8
     15a:	7f 3e       	cpi	r23, 0xEF	; 239
     15c:	41 41       	sbci	r20, 0x11	; 17
     15e:	41 3e       	cpi	r20, 0xE1	; 225
     160:	7f 09       	sbc	r23, r15
     162:	09 09       	sbc	r16, r9
     164:	06 3e       	cpi	r16, 0xE6	; 230
     166:	41 51       	subi	r20, 0x11	; 17
     168:	21 5e       	subi	r18, 0xE1	; 225
     16a:	7f 09       	sbc	r23, r15
     16c:	19 29       	or	r17, r9
     16e:	46 46       	sbci	r20, 0x66	; 102
     170:	49 49       	sbci	r20, 0x99	; 153
     172:	49 31       	cpi	r20, 0x19	; 25
     174:	01 01       	movw	r0, r2
     176:	7f 01       	movw	r14, r30
     178:	01 3f       	cpi	r16, 0xF1	; 241
     17a:	40 40       	sbci	r20, 0x00	; 0
     17c:	40 3f       	cpi	r20, 0xF0	; 240
     17e:	1f 20       	and	r1, r15
     180:	40 20       	and	r4, r0
     182:	1f 7f       	andi	r17, 0xFF	; 255
     184:	20 18       	sub	r2, r0
     186:	20 7f       	andi	r18, 0xF0	; 240
     188:	63 14       	cp	r6, r3
     18a:	08 14       	cp	r0, r8
     18c:	63 03       	mulsu	r22, r19
     18e:	04 78       	andi	r16, 0x84	; 132
     190:	04 03       	mulsu	r16, r20
     192:	61 51       	subi	r22, 0x11	; 17
     194:	49 45       	sbci	r20, 0x59	; 89
     196:	43 00       	.word	0x0043	; ????
     198:	00 7f       	andi	r16, 0xF0	; 240
     19a:	41 41       	sbci	r20, 0x11	; 17
     19c:	02 04       	cpc	r0, r2
     19e:	08 10       	cpse	r0, r8
     1a0:	20 41       	sbci	r18, 0x10	; 16
     1a2:	41 7f       	andi	r20, 0xF1	; 241
     1a4:	00 00       	nop
     1a6:	04 02       	muls	r16, r20
     1a8:	01 02       	muls	r16, r17
     1aa:	04 40       	sbci	r16, 0x04	; 4
     1ac:	40 40       	sbci	r20, 0x00	; 0
     1ae:	40 40       	sbci	r20, 0x00	; 0
     1b0:	00 01       	movw	r0, r0
     1b2:	02 04       	cpc	r0, r2
     1b4:	00 20       	and	r0, r0
     1b6:	54 54       	subi	r21, 0x44	; 68
     1b8:	54 78       	andi	r21, 0x84	; 132
     1ba:	7f 48       	sbci	r23, 0x8F	; 143
     1bc:	44 44       	sbci	r20, 0x44	; 68
     1be:	38 38       	cpi	r19, 0x88	; 136
     1c0:	44 44       	sbci	r20, 0x44	; 68
     1c2:	44 20       	and	r4, r4
     1c4:	38 44       	sbci	r19, 0x48	; 72
     1c6:	44 48       	sbci	r20, 0x84	; 132
     1c8:	7f 38       	cpi	r23, 0x8F	; 143
     1ca:	54 54       	subi	r21, 0x44	; 68
     1cc:	54 18       	sub	r5, r4
     1ce:	08 7e       	andi	r16, 0xE8	; 232
     1d0:	09 01       	movw	r0, r18
     1d2:	02 08       	sbc	r0, r2
     1d4:	14 54       	subi	r17, 0x44	; 68
     1d6:	54 3c       	cpi	r21, 0xC4	; 196
     1d8:	7f 08       	sbc	r7, r15
     1da:	04 04       	cpc	r0, r4
     1dc:	78 00       	.word	0x0078	; ????
     1de:	44 7d       	andi	r20, 0xD4	; 212
     1e0:	40 00       	.word	0x0040	; ????
     1e2:	20 40       	sbci	r18, 0x00	; 0
     1e4:	44 3d       	cpi	r20, 0xD4	; 212
     1e6:	00 00       	nop
     1e8:	7f 10       	cpse	r7, r15
     1ea:	28 44       	sbci	r18, 0x48	; 72
     1ec:	00 41       	sbci	r16, 0x10	; 16
     1ee:	7f 40       	sbci	r23, 0x0F	; 15
     1f0:	00 7c       	andi	r16, 0xC0	; 192
     1f2:	04 18       	sub	r0, r4
     1f4:	04 78       	andi	r16, 0x84	; 132
     1f6:	7c 08       	sbc	r7, r12
     1f8:	04 04       	cpc	r0, r4
     1fa:	78 38       	cpi	r23, 0x88	; 136
     1fc:	44 44       	sbci	r20, 0x44	; 68
     1fe:	44 38       	cpi	r20, 0x84	; 132
     200:	7c 14       	cp	r7, r12
     202:	14 14       	cp	r1, r4
     204:	08 08       	sbc	r0, r8
     206:	14 14       	cp	r1, r4
     208:	18 7c       	andi	r17, 0xC8	; 200
     20a:	7c 08       	sbc	r7, r12
     20c:	04 04       	cpc	r0, r4
     20e:	08 48       	sbci	r16, 0x88	; 136
     210:	54 54       	subi	r21, 0x44	; 68
     212:	54 20       	and	r5, r4
     214:	04 3f       	cpi	r16, 0xF4	; 244
     216:	44 40       	sbci	r20, 0x04	; 4
     218:	20 3c       	cpi	r18, 0xC0	; 192
     21a:	40 40       	sbci	r20, 0x00	; 0
     21c:	20 7c       	andi	r18, 0xC0	; 192
     21e:	1c 20       	and	r1, r12
     220:	40 20       	and	r4, r0
     222:	1c 3c       	cpi	r17, 0xCC	; 204
     224:	40 30       	cpi	r20, 0x00	; 0
     226:	40 3c       	cpi	r20, 0xC0	; 192
     228:	44 28       	or	r4, r4
     22a:	10 28       	or	r1, r0
     22c:	44 0c       	add	r4, r4
     22e:	50 50       	subi	r21, 0x00	; 0
     230:	50 3c       	cpi	r21, 0xC0	; 192
     232:	44 64       	ori	r20, 0x44	; 68
     234:	54 4c       	sbci	r21, 0xC4	; 196
     236:	44 00       	.word	0x0044	; ????
     238:	08 36       	cpi	r16, 0x68	; 104
     23a:	41 00       	.word	0x0041	; ????
     23c:	00 00       	nop
     23e:	7f 00       	.word	0x007f	; ????
     240:	00 00       	nop
     242:	41 36       	cpi	r20, 0x61	; 97
     244:	08 00       	.word	0x0008	; ????
     246:	02 01       	movw	r0, r4
     248:	03 02       	muls	r16, r19
     24a:	01 00       	.word	0x0001	; ????

0000024c <__ctors_end>:
     24c:	11 24       	eor	r1, r1
     24e:	1f be       	out	0x3f, r1	; 63
     250:	cf ef       	ldi	r28, 0xFF	; 255
     252:	d4 e0       	ldi	r29, 0x04	; 4
     254:	de bf       	out	0x3e, r29	; 62
     256:	cd bf       	out	0x3d, r28	; 61

00000258 <__do_copy_data>:
     258:	13 e0       	ldi	r17, 0x03	; 3
     25a:	a0 e0       	ldi	r26, 0x00	; 0
     25c:	b1 e0       	ldi	r27, 0x01	; 1
     25e:	e6 ef       	ldi	r30, 0xF6	; 246
     260:	f8 e1       	ldi	r31, 0x18	; 24
     262:	02 c0       	rjmp	.+4      	; 0x268 <__do_copy_data+0x10>
     264:	05 90       	lpm	r0, Z+
     266:	0d 92       	st	X+, r0
     268:	a0 35       	cpi	r26, 0x50	; 80
     26a:	b1 07       	cpc	r27, r17
     26c:	d9 f7       	brne	.-10     	; 0x264 <__do_copy_data+0xc>

0000026e <__do_clear_bss>:
     26e:	23 e0       	ldi	r18, 0x03	; 3
     270:	a0 e5       	ldi	r26, 0x50	; 80
     272:	b3 e0       	ldi	r27, 0x03	; 3
     274:	01 c0       	rjmp	.+2      	; 0x278 <.do_clear_bss_start>

00000276 <.do_clear_bss_loop>:
     276:	1d 92       	st	X+, r1

00000278 <.do_clear_bss_start>:
     278:	a4 37       	cpi	r26, 0x74	; 116
     27a:	b2 07       	cpc	r27, r18
     27c:	e1 f7       	brne	.-8      	; 0x276 <.do_clear_bss_loop>
     27e:	0e 94 f2 05 	call	0xbe4	; 0xbe4 <main>
     282:	0c 94 79 0c 	jmp	0x18f2	; 0x18f2 <_exit>

00000286 <__bad_interrupt>:
     286:	0c 94 00 00 	jmp	0	; 0x0 <__vectors>

0000028a <CAN_init>:


int CAN_init()
{
	// Turn mask/filters off
	MCP_bit_modify(MCP_RXB0CTRL, MCP_FILTER_OFF, MCP_FILTER_OFF);
     28a:	40 e6       	ldi	r20, 0x60	; 96
     28c:	60 e6       	ldi	r22, 0x60	; 96
     28e:	80 e6       	ldi	r24, 0x60	; 96
     290:	0e 94 58 02 	call	0x4b0	; 0x4b0 <MCP_bit_modify>
	MCP_bit_modify(MCP_RXB1CTRL, MCP_FILTER_OFF, MCP_FILTER_OFF);
     294:	40 e6       	ldi	r20, 0x60	; 96
     296:	60 e6       	ldi	r22, 0x60	; 96
     298:	80 e7       	ldi	r24, 0x70	; 112
     29a:	0e 94 58 02 	call	0x4b0	; 0x4b0 <MCP_bit_modify>
	
	// Rollover enable
	MCP_bit_modify(MCP_RXB0CTRL, MCP_ROLLOVER, MCP_ROLLOVER);
     29e:	44 e0       	ldi	r20, 0x04	; 4
     2a0:	64 e0       	ldi	r22, 0x04	; 4
     2a2:	80 e6       	ldi	r24, 0x60	; 96
     2a4:	0e 94 58 02 	call	0x4b0	; 0x4b0 <MCP_bit_modify>
	MCP_bit_modify(MCP_RXB1CTRL, MCP_ROLLOVER, MCP_ROLLOVER);
     2a8:	44 e0       	ldi	r20, 0x04	; 4
     2aa:	64 e0       	ldi	r22, 0x04	; 4
     2ac:	80 e7       	ldi	r24, 0x70	; 112
     2ae:	0e 94 58 02 	call	0x4b0	; 0x4b0 <MCP_bit_modify>
	
	//Set to loop-back mode
	//MCP_bit_modify(MCP_CANCTRL, MODE_MASK, MODE_LOOPBACK);
	
	// Set to normal mode
	MCP_bit_modify(MCP_CANCTRL, MODE_MASK, MODE_NORMAL);
     2b2:	40 e0       	ldi	r20, 0x00	; 0
     2b4:	60 ee       	ldi	r22, 0xE0	; 224
     2b6:	8f e0       	ldi	r24, 0x0F	; 15
     2b8:	0e 94 58 02 	call	0x4b0	; 0x4b0 <MCP_bit_modify>
	
	uint8_t value = MCP_read(MCP_CANSTAT);
     2bc:	8e e0       	ldi	r24, 0x0E	; 14
     2be:	0e 94 0a 02 	call	0x414	; 0x414 <MCP_read>
	if ((value & MODE_MASK) != MODE_NORMAL){
     2c2:	80 7e       	andi	r24, 0xE0	; 224
     2c4:	39 f0       	breq	.+14     	; 0x2d4 <CAN_init+0x4a>
		printf("MCP2515 is NOT in normal mode after CAN init\n");
     2c6:	8e e0       	ldi	r24, 0x0E	; 14
     2c8:	92 e0       	ldi	r25, 0x02	; 2
     2ca:	0e 94 53 08 	call	0x10a6	; 0x10a6 <puts>
		return 1;
     2ce:	81 e0       	ldi	r24, 0x01	; 1
     2d0:	90 e0       	ldi	r25, 0x00	; 0
     2d2:	08 95       	ret
	}
	
	
	// Interrupt pin (enable CANINTE.RXnIE)
	MCP_write(MCP_CANINTE, MCP_RX_INT);
     2d4:	63 e0       	ldi	r22, 0x03	; 3
     2d6:	8b e2       	ldi	r24, 0x2B	; 43
     2d8:	0e 94 31 02 	call	0x462	; 0x462 <MCP_write>
	
	#if defined(__AVR_ATmega162__)
	// Falling edge of INT0 generates interrupt request
	MCUCR |= (1 << ISC01) | (0 << ISC00);
     2dc:	85 b7       	in	r24, 0x35	; 53
     2de:	82 60       	ori	r24, 0x02	; 2
     2e0:	85 bf       	out	0x35, r24	; 53
	GICR |= (1 << INT0);
     2e2:	8b b7       	in	r24, 0x3b	; 59
     2e4:	80 64       	ori	r24, 0x40	; 64
     2e6:	8b bf       	out	0x3b, r24	; 59
	// Falling edge of INT2 generates interrupt request
	EICRA |= (1 << ISC21) | (0 << ISC20);
	// Enable external interrupts of INT2
	EIMSK |= (1 << INT2);
	#endif
	return 0;
     2e8:	80 e0       	ldi	r24, 0x00	; 0
     2ea:	90 e0       	ldi	r25, 0x00	; 0
}
     2ec:	08 95       	ret

000002ee <CAN_msg_send>:

void CAN_msg_send(can_msg *message)
{
     2ee:	ef 92       	push	r14
     2f0:	ff 92       	push	r15
     2f2:	0f 93       	push	r16
     2f4:	1f 93       	push	r17
     2f6:	cf 93       	push	r28
     2f8:	df 93       	push	r29
     2fa:	7c 01       	movw	r14, r24
	// Write ID to TXB0SIDH
	MCP_write(MCP_TXB0SIDH, (message->id) >> 3);
     2fc:	fc 01       	movw	r30, r24
     2fe:	60 81       	ld	r22, Z
     300:	71 81       	ldd	r23, Z+1	; 0x01
     302:	76 95       	lsr	r23
     304:	67 95       	ror	r22
     306:	76 95       	lsr	r23
     308:	67 95       	ror	r22
     30a:	76 95       	lsr	r23
     30c:	67 95       	ror	r22
     30e:	81 e3       	ldi	r24, 0x31	; 49
     310:	0e 94 31 02 	call	0x462	; 0x462 <MCP_write>
	// Write 0 to TXB0SIDL and extended identifier registers
	MCP_write(MCP_TXB0SIDL, (message->id) << 5);
     314:	f7 01       	movw	r30, r14
     316:	60 81       	ld	r22, Z
     318:	62 95       	swap	r22
     31a:	66 0f       	add	r22, r22
     31c:	60 7e       	andi	r22, 0xE0	; 224
     31e:	82 e3       	ldi	r24, 0x32	; 50
     320:	0e 94 31 02 	call	0x462	; 0x462 <MCP_write>
	MCP_write(MCP_TXB0EID8, 0);
     324:	60 e0       	ldi	r22, 0x00	; 0
     326:	83 e3       	ldi	r24, 0x33	; 51
     328:	0e 94 31 02 	call	0x462	; 0x462 <MCP_write>
	MCP_write(MCP_TXB0EID0, 0);
     32c:	60 e0       	ldi	r22, 0x00	; 0
     32e:	84 e3       	ldi	r24, 0x34	; 52
     330:	0e 94 31 02 	call	0x462	; 0x462 <MCP_write>
	
	//Write data length
	MCP_write(MCP_TXB0DLC, message->length);
     334:	f7 01       	movw	r30, r14
     336:	62 81       	ldd	r22, Z+2	; 0x02
     338:	85 e3       	ldi	r24, 0x35	; 53
     33a:	0e 94 31 02 	call	0x462	; 0x462 <MCP_write>
	
	for (int i = 0; i < message->length; i++){
     33e:	f7 01       	movw	r30, r14
     340:	82 81       	ldd	r24, Z+2	; 0x02
     342:	88 23       	and	r24, r24
     344:	99 f0       	breq	.+38     	; 0x36c <CAN_msg_send+0x7e>
     346:	87 01       	movw	r16, r14
     348:	0d 5f       	subi	r16, 0xFD	; 253
     34a:	1f 4f       	sbci	r17, 0xFF	; 255
     34c:	c0 e0       	ldi	r28, 0x00	; 0
     34e:	d0 e0       	ldi	r29, 0x00	; 0
		MCP_write(MCP_TXB0SIDH + 5 + i, message->data[i] );
     350:	f8 01       	movw	r30, r16
     352:	61 91       	ld	r22, Z+
     354:	8f 01       	movw	r16, r30
     356:	8c 2f       	mov	r24, r28
     358:	8a 5c       	subi	r24, 0xCA	; 202
     35a:	0e 94 31 02 	call	0x462	; 0x462 <MCP_write>
	MCP_write(MCP_TXB0EID0, 0);
	
	//Write data length
	MCP_write(MCP_TXB0DLC, message->length);
	
	for (int i = 0; i < message->length; i++){
     35e:	21 96       	adiw	r28, 0x01	; 1
     360:	f7 01       	movw	r30, r14
     362:	22 81       	ldd	r18, Z+2	; 0x02
     364:	30 e0       	ldi	r19, 0x00	; 0
     366:	c2 17       	cp	r28, r18
     368:	d3 07       	cpc	r29, r19
     36a:	94 f3       	brlt	.-28     	; 0x350 <CAN_msg_send+0x62>
		MCP_write(MCP_TXB0SIDH + 5 + i, message->data[i] );
	}
	MCP_request_to_send(MCP_RTS_TX0);
     36c:	81 e8       	ldi	r24, 0x81	; 129
     36e:	0e 94 49 02 	call	0x492	; 0x492 <MCP_request_to_send>
}
     372:	df 91       	pop	r29
     374:	cf 91       	pop	r28
     376:	1f 91       	pop	r17
     378:	0f 91       	pop	r16
     37a:	ff 90       	pop	r15
     37c:	ef 90       	pop	r14
     37e:	08 95       	ret

00000380 <__vector_1>:
	}
}


#if defined(__AVR_ATmega162__)
ISR(INT0_vect){
     380:	1f 92       	push	r1
     382:	0f 92       	push	r0
     384:	0f b6       	in	r0, 0x3f	; 63
     386:	0f 92       	push	r0
     388:	11 24       	eor	r1, r1
     38a:	2f 93       	push	r18
     38c:	3f 93       	push	r19
     38e:	4f 93       	push	r20
     390:	5f 93       	push	r21
     392:	6f 93       	push	r22
     394:	7f 93       	push	r23
     396:	8f 93       	push	r24
     398:	9f 93       	push	r25
     39a:	af 93       	push	r26
     39c:	bf 93       	push	r27
     39e:	ef 93       	push	r30
     3a0:	ff 93       	push	r31
	uint8_t interrupt = MCP_read(MCP_CANINTF);
     3a2:	8c e2       	ldi	r24, 0x2C	; 44
     3a4:	0e 94 0a 02 	call	0x414	; 0x414 <MCP_read>

	if (interrupt & MCP_RX0IF){
     3a8:	80 ff       	sbrs	r24, 0
     3aa:	09 c0       	rjmp	.+18     	; 0x3be <__vector_1+0x3e>
		interrupt_flag = RX0;
     3ac:	81 e0       	ldi	r24, 0x01	; 1
     3ae:	80 93 50 03 	sts	0x0350, r24
		// clear CANINTF.RX0IF
		MCP_bit_modify(MCP_CANINTF, 0x01, 0x00);
     3b2:	40 e0       	ldi	r20, 0x00	; 0
     3b4:	61 e0       	ldi	r22, 0x01	; 1
     3b6:	8c e2       	ldi	r24, 0x2C	; 44
     3b8:	0e 94 58 02 	call	0x4b0	; 0x4b0 <MCP_bit_modify>
     3bc:	0a c0       	rjmp	.+20     	; 0x3d2 <__vector_1+0x52>
	}
	else if (interrupt & MCP_RX1IF){
     3be:	81 ff       	sbrs	r24, 1
     3c0:	08 c0       	rjmp	.+16     	; 0x3d2 <__vector_1+0x52>
		interrupt_flag = RX1;
     3c2:	82 e0       	ldi	r24, 0x02	; 2
     3c4:	80 93 50 03 	sts	0x0350, r24
		// clear CANINTF.RX1IF
		MCP_bit_modify(MCP_CANINTF, 0x02, 0x00);
     3c8:	40 e0       	ldi	r20, 0x00	; 0
     3ca:	62 e0       	ldi	r22, 0x02	; 2
     3cc:	8c e2       	ldi	r24, 0x2C	; 44
     3ce:	0e 94 58 02 	call	0x4b0	; 0x4b0 <MCP_bit_modify>
	}
	
}
     3d2:	ff 91       	pop	r31
     3d4:	ef 91       	pop	r30
     3d6:	bf 91       	pop	r27
     3d8:	af 91       	pop	r26
     3da:	9f 91       	pop	r25
     3dc:	8f 91       	pop	r24
     3de:	7f 91       	pop	r23
     3e0:	6f 91       	pop	r22
     3e2:	5f 91       	pop	r21
     3e4:	4f 91       	pop	r20
     3e6:	3f 91       	pop	r19
     3e8:	2f 91       	pop	r18
     3ea:	0f 90       	pop	r0
     3ec:	0f be       	out	0x3f, r0	; 63
     3ee:	0f 90       	pop	r0
     3f0:	1f 90       	pop	r1
     3f2:	18 95       	reti

000003f4 <MCP_reset>:
}

void MCP_reset( void )
{
	// Lower the _CS pin
	SPI_set_ss(0);
     3f4:	80 e0       	ldi	r24, 0x00	; 0
     3f6:	90 e0       	ldi	r25, 0x00	; 0
     3f8:	0e 94 86 02 	call	0x50c	; 0x50c <SPI_set_ss>
	// Send reset instruction
	SPI_transmit_receive(MCP_RESET);
     3fc:	80 ec       	ldi	r24, 0xC0	; 192
     3fe:	0e 94 7d 02 	call	0x4fa	; 0x4fa <SPI_transmit_receive>
	#else
		//round up by default
		__ticks_dc = (uint32_t)(ceil(fabs(__tmp)));
	#endif

	__builtin_avr_delay_cycles(__ticks_dc);
     402:	82 e4       	ldi	r24, 0x42	; 66
     404:	8a 95       	dec	r24
     406:	f1 f7       	brne	.-4      	; 0x404 <MCP_reset+0x10>
     408:	00 c0       	rjmp	.+0      	; 0x40a <MCP_reset+0x16>
	_delay_us(200);
	SPI_set_ss(1);
     40a:	81 e0       	ldi	r24, 0x01	; 1
     40c:	90 e0       	ldi	r25, 0x00	; 0
     40e:	0e 94 86 02 	call	0x50c	; 0x50c <SPI_set_ss>
     412:	08 95       	ret

00000414 <MCP_read>:
}

uint8_t MCP_read( uint8_t address )
{
     414:	cf 93       	push	r28
     416:	c8 2f       	mov	r28, r24
	uint8_t received;
	// Lower the _CS pin
	SPI_set_ss(0);
     418:	80 e0       	ldi	r24, 0x00	; 0
     41a:	90 e0       	ldi	r25, 0x00	; 0
     41c:	0e 94 86 02 	call	0x50c	; 0x50c <SPI_set_ss>
	//printf("hello from MCP read 1\n");
	// Send read instruction
	SPI_transmit_receive(MCP_READ);
     420:	83 e0       	ldi	r24, 0x03	; 3
     422:	0e 94 7d 02 	call	0x4fa	; 0x4fa <SPI_transmit_receive>
	//printf("hello from MCP read 2\n");
	// Send 8-bit address
	SPI_transmit_receive(address);
     426:	8c 2f       	mov	r24, r28
     428:	0e 94 7d 02 	call	0x4fa	; 0x4fa <SPI_transmit_receive>
	//printf("hello from MCP read 3\n");
	// Send dummy data and receive data from MCP2515
	received = SPI_transmit_receive(0);
     42c:	80 e0       	ldi	r24, 0x00	; 0
     42e:	0e 94 7d 02 	call	0x4fa	; 0x4fa <SPI_transmit_receive>
     432:	c8 2f       	mov	r28, r24
	//printf("hello from MCP read 4\n");
	SPI_set_ss(1);
     434:	81 e0       	ldi	r24, 0x01	; 1
     436:	90 e0       	ldi	r25, 0x00	; 0
     438:	0e 94 86 02 	call	0x50c	; 0x50c <SPI_set_ss>
	return received;
}
     43c:	8c 2f       	mov	r24, r28
     43e:	cf 91       	pop	r28
     440:	08 95       	ret

00000442 <MCP_init>:

uint8_t MCP_init( void )
{
	//SPI_init();
	//printf("hello from MCP init 1\n");
	MCP_reset();
     442:	0e 94 fa 01 	call	0x3f4	; 0x3f4 <MCP_reset>
	//printf("hello from MCP init 2\n");
	
	uint8_t value = MCP_read(MCP_CANSTAT);
     446:	8e e0       	ldi	r24, 0x0E	; 14
     448:	0e 94 0a 02 	call	0x414	; 0x414 <MCP_read>
	//printf("hello from MCP init 3\n");
	
	if ((value & MODE_MASK) != MODE_CONFIG){
     44c:	80 7e       	andi	r24, 0xE0	; 224
     44e:	80 38       	cpi	r24, 0x80	; 128
     450:	31 f0       	breq	.+12     	; 0x45e <MCP_init+0x1c>
		printf("MCP2515 is NOT in configuration mode after reset\n");
     452:	8b e3       	ldi	r24, 0x3B	; 59
     454:	92 e0       	ldi	r25, 0x02	; 2
     456:	0e 94 53 08 	call	0x10a6	; 0x10a6 <puts>
		return 1;
     45a:	81 e0       	ldi	r24, 0x01	; 1
     45c:	08 95       	ret
	}
	//printf("hello from MCP init 4\n");
	return 0;
     45e:	80 e0       	ldi	r24, 0x00	; 0
}
     460:	08 95       	ret

00000462 <MCP_write>:
	SPI_set_ss(1);
	return received;
}

void MCP_write( uint8_t address, uint8_t data )
{
     462:	cf 93       	push	r28
     464:	df 93       	push	r29
     466:	d8 2f       	mov	r29, r24
     468:	c6 2f       	mov	r28, r22
	SPI_set_ss(0);
     46a:	80 e0       	ldi	r24, 0x00	; 0
     46c:	90 e0       	ldi	r25, 0x00	; 0
     46e:	0e 94 86 02 	call	0x50c	; 0x50c <SPI_set_ss>
	SPI_transmit_receive(MCP_WRITE);
     472:	82 e0       	ldi	r24, 0x02	; 2
     474:	0e 94 7d 02 	call	0x4fa	; 0x4fa <SPI_transmit_receive>
	SPI_transmit_receive(address);
     478:	8d 2f       	mov	r24, r29
     47a:	0e 94 7d 02 	call	0x4fa	; 0x4fa <SPI_transmit_receive>
	SPI_transmit_receive(data);
     47e:	8c 2f       	mov	r24, r28
     480:	0e 94 7d 02 	call	0x4fa	; 0x4fa <SPI_transmit_receive>
	// set SS pin high(?)
	SPI_set_ss(1);
     484:	81 e0       	ldi	r24, 0x01	; 1
     486:	90 e0       	ldi	r25, 0x00	; 0
     488:	0e 94 86 02 	call	0x50c	; 0x50c <SPI_set_ss>
}
     48c:	df 91       	pop	r29
     48e:	cf 91       	pop	r28
     490:	08 95       	ret

00000492 <MCP_request_to_send>:

//RTS command is either MCP_RTS_TX0, MCP_RTS_TX1, MCP_RTS_TX2 or MCP_RTS_ALL
void MCP_request_to_send( uint8_t RTS_command )
{
     492:	cf 93       	push	r28
     494:	c8 2f       	mov	r28, r24
	SPI_set_ss(0);
     496:	80 e0       	ldi	r24, 0x00	; 0
     498:	90 e0       	ldi	r25, 0x00	; 0
     49a:	0e 94 86 02 	call	0x50c	; 0x50c <SPI_set_ss>
	SPI_transmit_receive(RTS_command);
     49e:	8c 2f       	mov	r24, r28
     4a0:	0e 94 7d 02 	call	0x4fa	; 0x4fa <SPI_transmit_receive>
	SPI_set_ss(1); //(?)
     4a4:	81 e0       	ldi	r24, 0x01	; 1
     4a6:	90 e0       	ldi	r25, 0x00	; 0
     4a8:	0e 94 86 02 	call	0x50c	; 0x50c <SPI_set_ss>
}
     4ac:	cf 91       	pop	r28
     4ae:	08 95       	ret

000004b0 <MCP_bit_modify>:
	
	return status;
}

void MCP_bit_modify( uint8_t address, uint8_t mask, uint8_t data )
{
     4b0:	1f 93       	push	r17
     4b2:	cf 93       	push	r28
     4b4:	df 93       	push	r29
     4b6:	18 2f       	mov	r17, r24
     4b8:	d6 2f       	mov	r29, r22
     4ba:	c4 2f       	mov	r28, r20
	SPI_set_ss(0);
     4bc:	80 e0       	ldi	r24, 0x00	; 0
     4be:	90 e0       	ldi	r25, 0x00	; 0
     4c0:	0e 94 86 02 	call	0x50c	; 0x50c <SPI_set_ss>
	SPI_transmit_receive(MCP_BITMOD);
     4c4:	85 e0       	ldi	r24, 0x05	; 5
     4c6:	0e 94 7d 02 	call	0x4fa	; 0x4fa <SPI_transmit_receive>
	
	SPI_transmit_receive(address);
     4ca:	81 2f       	mov	r24, r17
     4cc:	0e 94 7d 02 	call	0x4fa	; 0x4fa <SPI_transmit_receive>
	SPI_transmit_receive(mask);
     4d0:	8d 2f       	mov	r24, r29
     4d2:	0e 94 7d 02 	call	0x4fa	; 0x4fa <SPI_transmit_receive>
	SPI_transmit_receive(data);
     4d6:	8c 2f       	mov	r24, r28
     4d8:	0e 94 7d 02 	call	0x4fa	; 0x4fa <SPI_transmit_receive>
	
	SPI_set_ss(1);
     4dc:	81 e0       	ldi	r24, 0x01	; 1
     4de:	90 e0       	ldi	r25, 0x00	; 0
     4e0:	0e 94 86 02 	call	0x50c	; 0x50c <SPI_set_ss>
     4e4:	df 91       	pop	r29
     4e6:	cf 91       	pop	r28
     4e8:	1f 91       	pop	r17
     4ea:	08 95       	ret

000004ec <SPI_init>:

void SPI_init( void )
{
	// Set MOSI, SCK and SS output
	#if defined(__AVR_ATmega162__)
	DDRB |= (1 << DDB5)|(1 << DDB7)|(1 << DDB4);
     4ec:	87 b3       	in	r24, 0x17	; 23
     4ee:	80 6b       	ori	r24, 0xB0	; 176
     4f0:	87 bb       	out	0x17, r24	; 23
	#if defined(__AVR_ATmega2560__)
	DDRB |= (1 << DDB2)|(1 << DDB1)|(1 << DDB0) | (1 << DDB7);
	#endif
	
	// Enable SPI, Master, set clock rate
	SPCR = (1 << MSTR)|(1 << SPR0);
     4f2:	81 e1       	ldi	r24, 0x11	; 17
     4f4:	8d b9       	out	0x0d, r24	; 13
	
	SPCR |= (1 << SPE);
     4f6:	6e 9a       	sbi	0x0d, 6	; 13
     4f8:	08 95       	ret

000004fa <SPI_transmit_receive>:
}

uint8_t SPI_transmit_receive(uint8_t data)
{
	// Start transmission (write to data register)
	SPDR = data;
     4fa:	8f b9       	out	0x0f, r24	; 15
	// Wait for transmission complete
	//printf("Hello from SPI transmit receive 1\n");
	while(!(SPSR & (1 << SPIF)));
     4fc:	77 9b       	sbis	0x0e, 7	; 14
     4fe:	fe cf       	rjmp	.-4      	; 0x4fc <SPI_transmit_receive+0x2>
     500:	82 e4       	ldi	r24, 0x42	; 66
     502:	8a 95       	dec	r24
     504:	f1 f7       	brne	.-4      	; 0x502 <__stack+0x3>
     506:	00 c0       	rjmp	.+0      	; 0x508 <__stack+0x9>
	//printf("Hello from SPI transmit receive 2\n");
	
	_delay_us(200);
	return SPDR;
     508:	8f b1       	in	r24, 0x0f	; 15
	
}
     50a:	08 95       	ret

0000050c <SPI_set_ss>:

// Set _SS to 1 or 0
void SPI_set_ss( int val )
{
	#if defined(__AVR_ATmega162__)
	if (val == 1){
     50c:	81 30       	cpi	r24, 0x01	; 1
     50e:	91 05       	cpc	r25, r1
     510:	11 f4       	brne	.+4      	; 0x516 <SPI_set_ss+0xa>
		set_bit(PORTB, PB4);
     512:	c4 9a       	sbi	0x18, 4	; 24
     514:	08 95       	ret
	}
	else if (val == 0){
     516:	89 2b       	or	r24, r25
     518:	09 f4       	brne	.+2      	; 0x51c <SPI_set_ss+0x10>
		clear_bit(PORTB, PB4);
     51a:	c4 98       	cbi	0x18, 4	; 24
     51c:	08 95       	ret

0000051e <UART_Transmit>:

// transmit data
void UART_Transmit (unsigned char data)
{
	// Wait for empty transmit buffer
	while (!( UCSR0A & (1<<UDRE0))); 
     51e:	5d 9b       	sbis	0x0b, 5	; 11
     520:	fe cf       	rjmp	.-4      	; 0x51e <UART_Transmit>
	
	// Put data into buffer, sends the data
	UDR0 = data;  
     522:	8c b9       	out	0x0c, r24	; 12
     524:	08 95       	ret

00000526 <UART_Recieve>:

// function to receive data
unsigned char UART_Recieve (void)
{
	//Wait for data to be received
	while(!(UCSR0A & (1<<RXC0)));  
     526:	5f 9b       	sbis	0x0b, 7	; 11
     528:	fe cf       	rjmp	.-4      	; 0x526 <UART_Recieve>
	
	//Get and return received data from buffer
	return UDR0;  
     52a:	8c b1       	in	r24, 0x0c	; 12
     52c:	08 95       	ret

0000052e <UART_Init>:

void UART_Init( unsigned int ubrr ){
	/* 
	Set baud rate
	 */
	UBRR0H |= (unsigned char)(ubrr>>8);
     52e:	20 b5       	in	r18, 0x20	; 32
     530:	92 2b       	or	r25, r18
     532:	90 bd       	out	0x20, r25	; 32
	UBRR0L |= (unsigned char)ubrr;
     534:	99 b1       	in	r25, 0x09	; 9
     536:	89 2b       	or	r24, r25
     538:	89 b9       	out	0x09, r24	; 9
	/* 
	Enable receiver and transmitter
	 */
	UCSR0B |= (1<<RXEN0)|(1<<TXEN0);
     53a:	8a b1       	in	r24, 0x0a	; 10
     53c:	88 61       	ori	r24, 0x18	; 24
     53e:	8a b9       	out	0x0a, r24	; 10
	
	/* 
	Set frame format: 8data, 2stop bit
	 */
	#if defined(__AVR_ATmega162__)
	UCSR0C |= (1<<URSEL0)|(1<<USBS0)|(1<<UCSZ00)|(1<<UCSZ01);
     540:	80 b5       	in	r24, 0x20	; 32
     542:	8e 68       	ori	r24, 0x8E	; 142
     544:	80 bd       	out	0x20, r24	; 32
	#endif
	#if defined(__AVR_ATmega2560__)
	UCSR0C |= (1<<USBS0)|(1<<UCSZ00)|(1<<UCSZ01);
	#endif
	
	fdevopen(&UART_Transmit, &UART_Recieve);
     546:	63 e9       	ldi	r22, 0x93	; 147
     548:	72 e0       	ldi	r23, 0x02	; 2
     54a:	8f e8       	ldi	r24, 0x8F	; 143
     54c:	92 e0       	ldi	r25, 0x02	; 2
     54e:	0e 94 f4 07 	call	0xfe8	; 0xfe8 <fdevopen>
     552:	08 95       	ret

00000554 <ADC_init>:
#include <avr/io.h>
#include <util/delay.h>

int ADC_init(void)
{
	set_bit(MCUCR, SRE);
     554:	85 b7       	in	r24, 0x35	; 53
     556:	80 68       	ori	r24, 0x80	; 128
     558:	85 bf       	out	0x35, r24	; 53
	set_bit(SFIOR, XMM2);
     55a:	80 b7       	in	r24, 0x30	; 48
     55c:	80 62       	ori	r24, 0x20	; 32
     55e:	80 bf       	out	0x30, r24	; 48
	
	// Set the interrupt pin to input
	clear_bit(DDRD, PD3);
     560:	8b 98       	cbi	0x11, 3	; 17
	return 0;
}
     562:	80 e0       	ldi	r24, 0x00	; 0
     564:	90 e0       	ldi	r25, 0x00	; 0
     566:	08 95       	ret

00000568 <ADC_read>:

uint8_t ADC_read(uint8_t channel)
{
	volatile uint8_t *ext_adc = (uint8_t *) ADC_DATA_ADDRESS; // Start address for the ADC
	
	if (channel > 3){ return 0; }
     568:	84 30       	cpi	r24, 0x04	; 4
     56a:	70 f4       	brcc	.+28     	; 0x588 <ADC_read+0x20>
	*ext_adc = 0x04 | channel; // bitwise OR
     56c:	84 60       	ori	r24, 0x04	; 4
     56e:	80 93 00 14 	sts	0x1400, r24
	
	// wait until interrupt is low, which means we can read the converted data
	loop_until_bit_is_clear(PIND, PD3);
     572:	83 99       	sbic	0x10, 3	; 16
     574:	fe cf       	rjmp	.-4      	; 0x572 <ADC_read+0xa>
     576:	85 ef       	ldi	r24, 0xF5	; 245
     578:	90 e0       	ldi	r25, 0x00	; 0
     57a:	01 97       	sbiw	r24, 0x01	; 1
     57c:	f1 f7       	brne	.-4      	; 0x57a <ADC_read+0x12>
     57e:	00 c0       	rjmp	.+0      	; 0x580 <ADC_read+0x18>
     580:	00 00       	nop
	_delay_us(200);
	
	return *ext_adc;
     582:	80 91 00 14 	lds	r24, 0x1400
     586:	08 95       	ret

uint8_t ADC_read(uint8_t channel)
{
	volatile uint8_t *ext_adc = (uint8_t *) ADC_DATA_ADDRESS; // Start address for the ADC
	
	if (channel > 3){ return 0; }
     588:	80 e0       	ldi	r24, 0x00	; 0
	loop_until_bit_is_clear(PIND, PD3);
	_delay_us(200);
	
	return *ext_adc;
	
}
     58a:	08 95       	ret

0000058c <SEND2CAN_send_joy_pos_x>:
#include "../../../communication_drivers/can.h"
#include <stdlib.h>
#include <math.h>

void SEND2CAN_send_joy_pos_x()
{
     58c:	cf 92       	push	r12
     58e:	df 92       	push	r13
     590:	ef 92       	push	r14
     592:	ff 92       	push	r15
     594:	cf 93       	push	r28
     596:	df 93       	push	r29
     598:	cd b7       	in	r28, 0x3d	; 61
     59a:	de b7       	in	r29, 0x3e	; 62
     59c:	2b 97       	sbiw	r28, 0x0b	; 11
     59e:	0f b6       	in	r0, 0x3f	; 63
     5a0:	f8 94       	cli
     5a2:	de bf       	out	0x3e, r29	; 62
     5a4:	0f be       	out	0x3f, r0	; 63
     5a6:	cd bf       	out	0x3d, r28	; 61
	static JOY_position_t prev_joy_pos;
	JOY_position_t joy_pos = JOY_read_adc();
     5a8:	0e 94 cf 03 	call	0x79e	; 0x79e <JOY_read_adc>
     5ac:	6b 01       	movw	r12, r22
     5ae:	7c 01       	movw	r14, r24
	can_msg msg;
	if(abs(joy_pos.x - prev_joy_pos.x) > 5){
     5b0:	80 91 59 03 	lds	r24, 0x0359
     5b4:	90 91 5a 03 	lds	r25, 0x035A
     5b8:	97 01       	movw	r18, r14
     5ba:	28 1b       	sub	r18, r24
     5bc:	39 0b       	sbc	r19, r25
     5be:	c9 01       	movw	r24, r18
     5c0:	99 23       	and	r25, r25
     5c2:	24 f4       	brge	.+8      	; 0x5cc <SEND2CAN_send_joy_pos_x+0x40>
     5c4:	88 27       	eor	r24, r24
     5c6:	99 27       	eor	r25, r25
     5c8:	82 1b       	sub	r24, r18
     5ca:	93 0b       	sbc	r25, r19
     5cc:	06 97       	sbiw	r24, 0x06	; 6
     5ce:	0c f1       	brlt	.+66     	; 0x612 <SEND2CAN_send_joy_pos_x+0x86>
		msg.id = ATmega162_ID;
     5d0:	81 e0       	ldi	r24, 0x01	; 1
     5d2:	90 e0       	ldi	r25, 0x00	; 0
     5d4:	9a 83       	std	Y+2, r25	; 0x02
     5d6:	89 83       	std	Y+1, r24	; 0x01
		msg.data[0] = CAN_JOY_POS_X;
     5d8:	1c 82       	std	Y+4, r1	; 0x04
		msg.data[1] = joy_pos.x;
     5da:	ed 82       	std	Y+5, r14	; 0x05
		msg.length = 2;
     5dc:	82 e0       	ldi	r24, 0x02	; 2
     5de:	8b 83       	std	Y+3, r24	; 0x03
		CAN_msg_send(&msg);
     5e0:	ce 01       	movw	r24, r28
     5e2:	01 96       	adiw	r24, 0x01	; 1
     5e4:	0e 94 77 01 	call	0x2ee	; 0x2ee <CAN_msg_send>
		printf("\n\nSent joystick position (x): (%d) \n",msg.data[1]);
     5e8:	8d 81       	ldd	r24, Y+5	; 0x05
     5ea:	1f 92       	push	r1
     5ec:	8f 93       	push	r24
     5ee:	8c e6       	ldi	r24, 0x6C	; 108
     5f0:	92 e0       	ldi	r25, 0x02	; 2
     5f2:	9f 93       	push	r25
     5f4:	8f 93       	push	r24
     5f6:	0e 94 3f 08 	call	0x107e	; 0x107e <printf>
		prev_joy_pos = joy_pos;
     5fa:	c0 92 57 03 	sts	0x0357, r12
     5fe:	d0 92 58 03 	sts	0x0358, r13
     602:	e0 92 59 03 	sts	0x0359, r14
     606:	f0 92 5a 03 	sts	0x035A, r15
     60a:	0f 90       	pop	r0
     60c:	0f 90       	pop	r0
     60e:	0f 90       	pop	r0
     610:	0f 90       	pop	r0
	}
}
     612:	2b 96       	adiw	r28, 0x0b	; 11
     614:	0f b6       	in	r0, 0x3f	; 63
     616:	f8 94       	cli
     618:	de bf       	out	0x3e, r29	; 62
     61a:	0f be       	out	0x3f, r0	; 63
     61c:	cd bf       	out	0x3d, r28	; 61
     61e:	df 91       	pop	r29
     620:	cf 91       	pop	r28
     622:	ff 90       	pop	r15
     624:	ef 90       	pop	r14
     626:	df 90       	pop	r13
     628:	cf 90       	pop	r12
     62a:	08 95       	ret

0000062c <SEND2CAN_send_slider_pos>:

void SEND2CAN_send_slider_pos()
{
     62c:	cf 92       	push	r12
     62e:	df 92       	push	r13
     630:	ef 92       	push	r14
     632:	ff 92       	push	r15
     634:	cf 93       	push	r28
     636:	df 93       	push	r29
     638:	cd b7       	in	r28, 0x3d	; 61
     63a:	de b7       	in	r29, 0x3e	; 62
     63c:	2b 97       	sbiw	r28, 0x0b	; 11
     63e:	0f b6       	in	r0, 0x3f	; 63
     640:	f8 94       	cli
     642:	de bf       	out	0x3e, r29	; 62
     644:	0f be       	out	0x3f, r0	; 63
     646:	cd bf       	out	0x3d, r28	; 61
	static TOUCH_slider_pos_t prev_slider_pos;
	TOUCH_slider_pos_t slider_pos = TOUCH_get_slider_position();
     648:	0e 94 ef 05 	call	0xbde	; 0xbde <TOUCH_get_slider_position>
     64c:	6b 01       	movw	r12, r22
     64e:	7c 01       	movw	r14, r24
	can_msg msg;
	
	if(abs(slider_pos.right_slider - prev_slider_pos.right_slider) > 5){
     650:	80 91 55 03 	lds	r24, 0x0355
     654:	90 91 56 03 	lds	r25, 0x0356
     658:	97 01       	movw	r18, r14
     65a:	28 1b       	sub	r18, r24
     65c:	39 0b       	sbc	r19, r25
     65e:	c9 01       	movw	r24, r18
     660:	99 23       	and	r25, r25
     662:	24 f4       	brge	.+8      	; 0x66c <SEND2CAN_send_slider_pos+0x40>
     664:	88 27       	eor	r24, r24
     666:	99 27       	eor	r25, r25
     668:	82 1b       	sub	r24, r18
     66a:	93 0b       	sbc	r25, r19
     66c:	06 97       	sbiw	r24, 0x06	; 6
     66e:	14 f1       	brlt	.+68     	; 0x6b4 <SEND2CAN_send_slider_pos+0x88>
		msg.id = ATmega162_ID;
     670:	81 e0       	ldi	r24, 0x01	; 1
     672:	90 e0       	ldi	r25, 0x00	; 0
     674:	9a 83       	std	Y+2, r25	; 0x02
     676:	89 83       	std	Y+1, r24	; 0x01
		msg.data[0] = CAN_SLIDER_POS_R;
     678:	83 e0       	ldi	r24, 0x03	; 3
     67a:	8c 83       	std	Y+4, r24	; 0x04
		msg.data[1] = slider_pos.right_slider;
     67c:	ed 82       	std	Y+5, r14	; 0x05
		msg.length = 2;
     67e:	82 e0       	ldi	r24, 0x02	; 2
     680:	8b 83       	std	Y+3, r24	; 0x03
		CAN_msg_send(&msg);
     682:	ce 01       	movw	r24, r28
     684:	01 96       	adiw	r24, 0x01	; 1
     686:	0e 94 77 01 	call	0x2ee	; 0x2ee <CAN_msg_send>
		printf("\n\nSent slider position: (%d) \n",msg.data[1]);
     68a:	8d 81       	ldd	r24, Y+5	; 0x05
     68c:	1f 92       	push	r1
     68e:	8f 93       	push	r24
     690:	81 e9       	ldi	r24, 0x91	; 145
     692:	92 e0       	ldi	r25, 0x02	; 2
     694:	9f 93       	push	r25
     696:	8f 93       	push	r24
     698:	0e 94 3f 08 	call	0x107e	; 0x107e <printf>
		prev_slider_pos = slider_pos;
     69c:	c0 92 53 03 	sts	0x0353, r12
     6a0:	d0 92 54 03 	sts	0x0354, r13
     6a4:	e0 92 55 03 	sts	0x0355, r14
     6a8:	f0 92 56 03 	sts	0x0356, r15
     6ac:	0f 90       	pop	r0
     6ae:	0f 90       	pop	r0
     6b0:	0f 90       	pop	r0
     6b2:	0f 90       	pop	r0
	}
	
}
     6b4:	2b 96       	adiw	r28, 0x0b	; 11
     6b6:	0f b6       	in	r0, 0x3f	; 63
     6b8:	f8 94       	cli
     6ba:	de bf       	out	0x3e, r29	; 62
     6bc:	0f be       	out	0x3f, r0	; 63
     6be:	cd bf       	out	0x3d, r28	; 61
     6c0:	df 91       	pop	r29
     6c2:	cf 91       	pop	r28
     6c4:	ff 90       	pop	r15
     6c6:	ef 90       	pop	r14
     6c8:	df 90       	pop	r13
     6ca:	cf 90       	pop	r12
     6cc:	08 95       	ret

000006ce <SEND2CAN_touch_button_pressed>:

void SEND2CAN_touch_button_pressed()
{
     6ce:	0f 93       	push	r16
     6d0:	1f 93       	push	r17
     6d2:	cf 93       	push	r28
     6d4:	df 93       	push	r29
     6d6:	cd b7       	in	r28, 0x3d	; 61
     6d8:	de b7       	in	r29, 0x3e	; 62
     6da:	2b 97       	sbiw	r28, 0x0b	; 11
     6dc:	0f b6       	in	r0, 0x3f	; 63
     6de:	f8 94       	cli
     6e0:	de bf       	out	0x3e, r29	; 62
     6e2:	0f be       	out	0x3f, r0	; 63
     6e4:	cd bf       	out	0x3d, r28	; 61
	static int prev_button_pressed;
	can_msg msg;
	
	int button_pressed = TOUCH_button();
     6e6:	0e 94 cf 05 	call	0xb9e	; 0xb9e <TOUCH_button>
     6ea:	8c 01       	movw	r16, r24
	if(button_pressed == 1 && prev_button_pressed == 0){
     6ec:	81 30       	cpi	r24, 0x01	; 1
     6ee:	91 05       	cpc	r25, r1
     6f0:	09 f5       	brne	.+66     	; 0x734 <SEND2CAN_touch_button_pressed+0x66>
     6f2:	80 91 51 03 	lds	r24, 0x0351
     6f6:	90 91 52 03 	lds	r25, 0x0352
     6fa:	89 2b       	or	r24, r25
     6fc:	d9 f4       	brne	.+54     	; 0x734 <SEND2CAN_touch_button_pressed+0x66>
		msg.id = ATmega162_ID;
     6fe:	81 e0       	ldi	r24, 0x01	; 1
     700:	90 e0       	ldi	r25, 0x00	; 0
     702:	9a 83       	std	Y+2, r25	; 0x02
     704:	89 83       	std	Y+1, r24	; 0x01
		msg.data[0] = CAN_TOUCH_BUTTON;
     706:	84 e0       	ldi	r24, 0x04	; 4
     708:	8c 83       	std	Y+4, r24	; 0x04
		msg.data[1] = button_pressed;
     70a:	81 e0       	ldi	r24, 0x01	; 1
     70c:	8d 83       	std	Y+5, r24	; 0x05
		msg.length = 2;
     70e:	82 e0       	ldi	r24, 0x02	; 2
     710:	8b 83       	std	Y+3, r24	; 0x03
		CAN_msg_send(&msg);
     712:	ce 01       	movw	r24, r28
     714:	01 96       	adiw	r24, 0x01	; 1
     716:	0e 94 77 01 	call	0x2ee	; 0x2ee <CAN_msg_send>
		printf("\n\nSent button press (x): (%d) \n",msg.data[1]);
     71a:	8d 81       	ldd	r24, Y+5	; 0x05
     71c:	1f 92       	push	r1
     71e:	8f 93       	push	r24
     720:	80 eb       	ldi	r24, 0xB0	; 176
     722:	92 e0       	ldi	r25, 0x02	; 2
     724:	9f 93       	push	r25
     726:	8f 93       	push	r24
     728:	0e 94 3f 08 	call	0x107e	; 0x107e <printf>
     72c:	0f 90       	pop	r0
     72e:	0f 90       	pop	r0
     730:	0f 90       	pop	r0
     732:	0f 90       	pop	r0
	}
	prev_button_pressed = button_pressed;
     734:	10 93 52 03 	sts	0x0352, r17
     738:	00 93 51 03 	sts	0x0351, r16
}
     73c:	2b 96       	adiw	r28, 0x0b	; 11
     73e:	0f b6       	in	r0, 0x3f	; 63
     740:	f8 94       	cli
     742:	de bf       	out	0x3e, r29	; 62
     744:	0f be       	out	0x3f, r0	; 63
     746:	cd bf       	out	0x3d, r28	; 61
     748:	df 91       	pop	r29
     74a:	cf 91       	pop	r28
     74c:	1f 91       	pop	r17
     74e:	0f 91       	pop	r16
     750:	08 95       	ret

00000752 <SEND2CAN_send_speed>:

void SEND2CAN_send_speed(int speed){
     752:	cf 93       	push	r28
     754:	df 93       	push	r29
     756:	cd b7       	in	r28, 0x3d	; 61
     758:	de b7       	in	r29, 0x3e	; 62
     75a:	2b 97       	sbiw	r28, 0x0b	; 11
     75c:	0f b6       	in	r0, 0x3f	; 63
     75e:	f8 94       	cli
     760:	de bf       	out	0x3e, r29	; 62
     762:	0f be       	out	0x3f, r0	; 63
     764:	cd bf       	out	0x3d, r28	; 61
	can_msg msg;
	msg.id = ATmega162_ID;
     766:	21 e0       	ldi	r18, 0x01	; 1
     768:	30 e0       	ldi	r19, 0x00	; 0
     76a:	3a 83       	std	Y+2, r19	; 0x02
     76c:	29 83       	std	Y+1, r18	; 0x01
	msg.data[0] = CAN_SPEED;
     76e:	96 e0       	ldi	r25, 0x06	; 6
     770:	9c 83       	std	Y+4, r25	; 0x04
	msg.data[1] = (uint8_t)speed;
     772:	8d 83       	std	Y+5, r24	; 0x05
	msg.length = 2;
     774:	82 e0       	ldi	r24, 0x02	; 2
     776:	8b 83       	std	Y+3, r24	; 0x03
	CAN_msg_send(&msg);
     778:	ce 01       	movw	r24, r28
     77a:	01 96       	adiw	r24, 0x01	; 1
     77c:	0e 94 77 01 	call	0x2ee	; 0x2ee <CAN_msg_send>
}
     780:	2b 96       	adiw	r28, 0x0b	; 11
     782:	0f b6       	in	r0, 0x3f	; 63
     784:	f8 94       	cli
     786:	de bf       	out	0x3e, r29	; 62
     788:	0f be       	out	0x3f, r0	; 63
     78a:	cd bf       	out	0x3d, r28	; 61
     78c:	df 91       	pop	r29
     78e:	cf 91       	pop	r28
     790:	08 95       	ret

00000792 <JOY_button>:
void JOY_calibrate( void ){
	neutral_pos = JOY_read_adc();
}

int JOY_button(){
	return !(test_bit(PINB, PINB0));
     792:	96 b3       	in	r25, 0x16	; 22
     794:	81 e0       	ldi	r24, 0x01	; 1
     796:	89 27       	eor	r24, r25
}
     798:	81 70       	andi	r24, 0x01	; 1
     79a:	90 e0       	ldi	r25, 0x00	; 0
     79c:	08 95       	ret

0000079e <JOY_read_adc>:

JOY_position_t JOY_read_adc( void ){
     79e:	cf 93       	push	r28
	JOY_position_t pos;
	pos.y = ADC_read(Y_POS_CHANNEL);
     7a0:	80 e0       	ldi	r24, 0x00	; 0
     7a2:	0e 94 b4 02 	call	0x568	; 0x568 <ADC_read>
     7a6:	c8 2f       	mov	r28, r24
	#else
		//round up by default
		__ticks_dc = (uint32_t)(ceil(fabs(__tmp)));
	#endif

	__builtin_avr_delay_cycles(__ticks_dc);
     7a8:	8c ec       	ldi	r24, 0xCC	; 204
     7aa:	94 e0       	ldi	r25, 0x04	; 4
     7ac:	01 97       	sbiw	r24, 0x01	; 1
     7ae:	f1 f7       	brne	.-4      	; 0x7ac <JOY_read_adc+0xe>
     7b0:	00 c0       	rjmp	.+0      	; 0x7b2 <JOY_read_adc+0x14>
     7b2:	00 00       	nop
	_delay_ms(1);
	pos.x = ADC_read(X_POS_CHANNEL);
     7b4:	81 e0       	ldi	r24, 0x01	; 1
     7b6:	0e 94 b4 02 	call	0x568	; 0x568 <ADC_read>
     7ba:	28 2f       	mov	r18, r24
	
	return pos;
     7bc:	6c 2f       	mov	r22, r28
     7be:	70 e0       	ldi	r23, 0x00	; 0
     7c0:	82 2f       	mov	r24, r18
     7c2:	90 e0       	ldi	r25, 0x00	; 0
}
     7c4:	cf 91       	pop	r28
     7c6:	08 95       	ret

000007c8 <JOY_calibrate>:
	set_bit(PORTB, PB0);
	
}

void JOY_calibrate( void ){
	neutral_pos = JOY_read_adc();
     7c8:	0e 94 cf 03 	call	0x79e	; 0x79e <JOY_read_adc>
     7cc:	60 93 5d 03 	sts	0x035D, r22
     7d0:	70 93 5e 03 	sts	0x035E, r23
     7d4:	80 93 5f 03 	sts	0x035F, r24
     7d8:	90 93 60 03 	sts	0x0360, r25
     7dc:	08 95       	ret

000007de <JOY_init>:

JOY_position_t neutral_pos; 


void JOY_init( void ){
	JOY_calibrate();
     7de:	0e 94 e4 03 	call	0x7c8	; 0x7c8 <JOY_calibrate>
	
	// Initialize PORT B, pin 0 (joystick button) as input
	clear_bit(DDRB, PINB0);
     7e2:	b8 98       	cbi	0x17, 0	; 23
	
	// Activate pull-up resistor for joystick button
	set_bit(PORTB, PB0);
     7e4:	c0 9a       	sbi	0x18, 0	; 24
     7e6:	08 95       	ret

000007e8 <JOY_get_position>:
	pos.x = ADC_read(X_POS_CHANNEL);
	
	return pos;
}

JOY_position_t JOY_get_position(){
     7e8:	0f 93       	push	r16
     7ea:	1f 93       	push	r17
     7ec:	cf 93       	push	r28
	JOY_position_t current_pos = JOY_read_adc();
     7ee:	0e 94 cf 03 	call	0x79e	; 0x79e <JOY_read_adc>
     7f2:	8b 01       	movw	r16, r22
     7f4:	9c 01       	movw	r18, r24
	
	JOY_position_t pos_percentage;
	pos_percentage.y = (current_pos.y - neutral_pos.y) * 100 / neutral_pos.y;
     7f6:	60 91 5d 03 	lds	r22, 0x035D
     7fa:	70 91 5e 03 	lds	r23, 0x035E
     7fe:	a8 01       	movw	r20, r16
     800:	46 1b       	sub	r20, r22
     802:	57 0b       	sbc	r21, r23
     804:	e4 e6       	ldi	r30, 0x64	; 100
     806:	e4 9f       	mul	r30, r20
     808:	c0 01       	movw	r24, r0
     80a:	e5 9f       	mul	r30, r21
     80c:	90 0d       	add	r25, r0
     80e:	11 24       	eor	r1, r1
     810:	0e 94 cc 07 	call	0xf98	; 0xf98 <__divmodhi4>
     814:	c6 2f       	mov	r28, r22
     816:	f7 2f       	mov	r31, r23
	pos_percentage.x = (current_pos.x - neutral_pos.x) * 100 / neutral_pos.x;
     818:	60 91 5f 03 	lds	r22, 0x035F
     81c:	70 91 60 03 	lds	r23, 0x0360
     820:	26 1b       	sub	r18, r22
     822:	37 0b       	sbc	r19, r23
     824:	e2 9f       	mul	r30, r18
     826:	c0 01       	movw	r24, r0
     828:	e3 9f       	mul	r30, r19
     82a:	90 0d       	add	r25, r0
     82c:	11 24       	eor	r1, r1
     82e:	0e 94 cc 07 	call	0xf98	; 0xf98 <__divmodhi4>
     832:	9b 01       	movw	r18, r22
     834:	6c 39       	cpi	r22, 0x9C	; 156
     836:	4f ef       	ldi	r20, 0xFF	; 255
     838:	74 07       	cpc	r23, r20
     83a:	14 f4       	brge	.+4      	; 0x840 <JOY_get_position+0x58>
     83c:	2c e9       	ldi	r18, 0x9C	; 156
     83e:	3f ef       	ldi	r19, 0xFF	; 255
     840:	8c 2f       	mov	r24, r28
     842:	9f 2f       	mov	r25, r31
     844:	8c 39       	cpi	r24, 0x9C	; 156
     846:	4f ef       	ldi	r20, 0xFF	; 255
     848:	94 07       	cpc	r25, r20
     84a:	14 f4       	brge	.+4      	; 0x850 <JOY_get_position+0x68>
     84c:	8c e9       	ldi	r24, 0x9C	; 156
     84e:	9f ef       	ldi	r25, 0xFF	; 255
     850:	ac 01       	movw	r20, r24
     852:	85 36       	cpi	r24, 0x65	; 101
     854:	91 05       	cpc	r25, r1
     856:	14 f0       	brlt	.+4      	; 0x85c <JOY_get_position+0x74>
     858:	44 e6       	ldi	r20, 0x64	; 100
     85a:	50 e0       	ldi	r21, 0x00	; 0
	else if (pos_percentage.x < -100) { pos_percentage.x = -100; }
	
	if (pos_percentage.y > 100) { pos_percentage.y = 100; }
	else if (pos_percentage.y < -100) { pos_percentage.y = -100; }

	return pos_percentage;
     85c:	ba 01       	movw	r22, r20
     85e:	25 36       	cpi	r18, 0x65	; 101
     860:	31 05       	cpc	r19, r1
     862:	14 f0       	brlt	.+4      	; 0x868 <JOY_get_position+0x80>
     864:	24 e6       	ldi	r18, 0x64	; 100
     866:	30 e0       	ldi	r19, 0x00	; 0
     868:	c9 01       	movw	r24, r18
}
     86a:	cf 91       	pop	r28
     86c:	1f 91       	pop	r17
     86e:	0f 91       	pop	r16
     870:	08 95       	ret

00000872 <JOY_get_direction>:

JOY_direction_t JOY_get_direction(){
	JOY_position_t current_pos = JOY_get_position();
     872:	0e 94 f4 03 	call	0x7e8	; 0x7e8 <JOY_get_position>
     876:	9b 01       	movw	r18, r22
     878:	ac 01       	movw	r20, r24
	
	if (abs(current_pos.x) < 30 && abs(current_pos.y) < 30) {
     87a:	fc 01       	movw	r30, r24
     87c:	7d 96       	adiw	r30, 0x1d	; 29
     87e:	fb 97       	sbiw	r30, 0x3b	; 59
     880:	20 f4       	brcc	.+8      	; 0x88a <JOY_get_direction+0x18>
     882:	fb 01       	movw	r30, r22
     884:	7d 96       	adiw	r30, 0x1d	; 29
     886:	fb 97       	sbiw	r30, 0x3b	; 59
     888:	d8 f0       	brcs	.+54     	; 0x8c0 <JOY_get_direction+0x4e>
		return NEUTRAL;
	}
	else if (abs(current_pos.x) > abs(current_pos.y)){
     88a:	dc 01       	movw	r26, r24
     88c:	55 23       	and	r21, r21
     88e:	24 f4       	brge	.+8      	; 0x898 <JOY_get_direction+0x26>
     890:	aa 27       	eor	r26, r26
     892:	bb 27       	eor	r27, r27
     894:	a8 1b       	sub	r26, r24
     896:	b9 0b       	sbc	r27, r25
     898:	fb 01       	movw	r30, r22
     89a:	33 23       	and	r19, r19
     89c:	24 f4       	brge	.+8      	; 0x8a6 <JOY_get_direction+0x34>
     89e:	ee 27       	eor	r30, r30
     8a0:	ff 27       	eor	r31, r31
     8a2:	e6 1b       	sub	r30, r22
     8a4:	f7 0b       	sbc	r31, r23
     8a6:	ea 17       	cp	r30, r26
     8a8:	fb 07       	cpc	r31, r27
     8aa:	2c f4       	brge	.+10     	; 0x8b6 <JOY_get_direction+0x44>
		if (current_pos.x > 0) { return RIGHT; }
     8ac:	14 16       	cp	r1, r20
     8ae:	15 06       	cpc	r1, r21
     8b0:	4c f4       	brge	.+18     	; 0x8c4 <JOY_get_direction+0x52>
     8b2:	82 e0       	ldi	r24, 0x02	; 2
     8b4:	08 95       	ret
		else { return LEFT; }
	}
	else {
		if (current_pos.y > 0) { return UP; }
     8b6:	12 16       	cp	r1, r18
     8b8:	13 06       	cpc	r1, r19
     8ba:	34 f4       	brge	.+12     	; 0x8c8 <JOY_get_direction+0x56>
     8bc:	83 e0       	ldi	r24, 0x03	; 3
     8be:	08 95       	ret

JOY_direction_t JOY_get_direction(){
	JOY_position_t current_pos = JOY_get_position();
	
	if (abs(current_pos.x) < 30 && abs(current_pos.y) < 30) {
		return NEUTRAL;
     8c0:	80 e0       	ldi	r24, 0x00	; 0
     8c2:	08 95       	ret
	}
	else if (abs(current_pos.x) > abs(current_pos.y)){
		if (current_pos.x > 0) { return RIGHT; }
		else { return LEFT; }
     8c4:	81 e0       	ldi	r24, 0x01	; 1
     8c6:	08 95       	ret
	}
	else {
		if (current_pos.y > 0) { return UP; }
		else { return DOWN; }
     8c8:	84 e0       	ldi	r24, 0x04	; 4
	}
     8ca:	08 95       	ret

000008cc <OLED_write_command>:
	OLED_write_command(0x00);
}

void OLED_write_command( uint8_t command )
{
	*oled_cmd = command;
     8cc:	e0 91 08 01 	lds	r30, 0x0108
     8d0:	f0 91 09 01 	lds	r31, 0x0109
     8d4:	80 83       	st	Z, r24
     8d6:	08 95       	ret

000008d8 <OLED_goto_column>:
     8d8:	e0 91 08 01 	lds	r30, 0x0108
     8dc:	f0 91 09 01 	lds	r31, 0x0109
     8e0:	91 e2       	ldi	r25, 0x21	; 33
     8e2:	90 83       	st	Z, r25
     8e4:	e0 91 08 01 	lds	r30, 0x0108
     8e8:	f0 91 09 01 	lds	r31, 0x0109
     8ec:	80 83       	st	Z, r24
     8ee:	e0 91 08 01 	lds	r30, 0x0108
     8f2:	f0 91 09 01 	lds	r31, 0x0109
     8f6:	8f e7       	ldi	r24, 0x7F	; 127
     8f8:	80 83       	st	Z, r24
     8fa:	08 95       	ret

000008fc <OLED_goto_line>:
     8fc:	e0 91 08 01 	lds	r30, 0x0108
     900:	f0 91 09 01 	lds	r31, 0x0109
     904:	92 e2       	ldi	r25, 0x22	; 34
     906:	90 83       	st	Z, r25
     908:	e0 91 08 01 	lds	r30, 0x0108
     90c:	f0 91 09 01 	lds	r31, 0x0109
     910:	80 83       	st	Z, r24
     912:	e0 91 08 01 	lds	r30, 0x0108
     916:	f0 91 09 01 	lds	r31, 0x0109
     91a:	87 e0       	ldi	r24, 0x07	; 7
     91c:	80 83       	st	Z, r24
     91e:	08 95       	ret

00000920 <OLED_pos>:
	OLED_write_command(line);
	OLED_write_command(7);
}

void OLED_pos(uint8_t row, uint8_t column)
{
     920:	cf 93       	push	r28
     922:	c6 2f       	mov	r28, r22
	OLED_goto_line(row);
     924:	0e 94 7e 04 	call	0x8fc	; 0x8fc <OLED_goto_line>
	OLED_goto_column(column);
     928:	8c 2f       	mov	r24, r28
     92a:	0e 94 6c 04 	call	0x8d8	; 0x8d8 <OLED_goto_column>
}
     92e:	cf 91       	pop	r28
     930:	08 95       	ret

00000932 <OLED_home>:

void OLED_home( void )
{
	// go "home", upper left corner
	OLED_pos(0, 0);
     932:	60 e0       	ldi	r22, 0x00	; 0
     934:	80 e0       	ldi	r24, 0x00	; 0
     936:	0e 94 90 04 	call	0x920	; 0x920 <OLED_pos>
     93a:	08 95       	ret

0000093c <OLED_clear_line>:


void OLED_clear_line( uint8_t line )
{
	// go to start position: first column in this line
	OLED_pos(line, 0);
     93c:	60 e0       	ldi	r22, 0x00	; 0
     93e:	0e 94 90 04 	call	0x920	; 0x920 <OLED_pos>
	
	// go through all columns
	for (uint8_t col = 0; col < NUM_COLUMNS; col++){
     942:	80 e0       	ldi	r24, 0x00	; 0
	*oled_cmd = command;
}

void OLED_write_data( uint8_t data )
{
	*oled_data = data;
     944:	e0 91 06 01 	lds	r30, 0x0106
     948:	f0 91 07 01 	lds	r31, 0x0107
     94c:	10 82       	st	Z, r1
{
	// go to start position: first column in this line
	OLED_pos(line, 0);
	
	// go through all columns
	for (uint8_t col = 0; col < NUM_COLUMNS; col++){
     94e:	8f 5f       	subi	r24, 0xFF	; 255
     950:	80 38       	cpi	r24, 0x80	; 128
     952:	c1 f7       	brne	.-16     	; 0x944 <OLED_clear_line+0x8>
		// write 8 bits to each column
		OLED_write_data(0x00);
	}
}
     954:	08 95       	ret

00000956 <OLED_reset>:

void OLED_reset( void )
{
     956:	cf 93       	push	r28
	// clear all lines
	for (uint8_t line = 0; line < NUM_LINES; line++){
     958:	c0 e0       	ldi	r28, 0x00	; 0
		OLED_clear_line(line);
     95a:	8c 2f       	mov	r24, r28
     95c:	0e 94 9e 04 	call	0x93c	; 0x93c <OLED_clear_line>
}

void OLED_reset( void )
{
	// clear all lines
	for (uint8_t line = 0; line < NUM_LINES; line++){
     960:	cf 5f       	subi	r28, 0xFF	; 255
     962:	c8 30       	cpi	r28, 0x08	; 8
     964:	d1 f7       	brne	.-12     	; 0x95a <OLED_reset+0x4>
		OLED_clear_line(line);
	}
	
	// go home
	OLED_home();
     966:	0e 94 99 04 	call	0x932	; 0x932 <OLED_home>
}
     96a:	cf 91       	pop	r28
     96c:	08 95       	ret

0000096e <OLED_init>:
	OLED_write_command(0x00);
}

void OLED_write_command( uint8_t command )
{
	*oled_cmd = command;
     96e:	e0 91 08 01 	lds	r30, 0x0108
     972:	f0 91 09 01 	lds	r31, 0x0109
     976:	8e ea       	ldi	r24, 0xAE	; 174
     978:	80 83       	st	Z, r24
     97a:	e0 91 08 01 	lds	r30, 0x0108
     97e:	f0 91 09 01 	lds	r31, 0x0109
     982:	81 ea       	ldi	r24, 0xA1	; 161
     984:	80 83       	st	Z, r24
     986:	e0 91 08 01 	lds	r30, 0x0108
     98a:	f0 91 09 01 	lds	r31, 0x0109
     98e:	8a ed       	ldi	r24, 0xDA	; 218
     990:	80 83       	st	Z, r24
     992:	e0 91 08 01 	lds	r30, 0x0108
     996:	f0 91 09 01 	lds	r31, 0x0109
     99a:	82 e1       	ldi	r24, 0x12	; 18
     99c:	80 83       	st	Z, r24
     99e:	e0 91 08 01 	lds	r30, 0x0108
     9a2:	f0 91 09 01 	lds	r31, 0x0109
     9a6:	88 ec       	ldi	r24, 0xC8	; 200
     9a8:	80 83       	st	Z, r24
     9aa:	e0 91 08 01 	lds	r30, 0x0108
     9ae:	f0 91 09 01 	lds	r31, 0x0109
     9b2:	88 ea       	ldi	r24, 0xA8	; 168
     9b4:	80 83       	st	Z, r24
     9b6:	e0 91 08 01 	lds	r30, 0x0108
     9ba:	f0 91 09 01 	lds	r31, 0x0109
     9be:	8f e3       	ldi	r24, 0x3F	; 63
     9c0:	80 83       	st	Z, r24
     9c2:	e0 91 08 01 	lds	r30, 0x0108
     9c6:	f0 91 09 01 	lds	r31, 0x0109
     9ca:	85 ed       	ldi	r24, 0xD5	; 213
     9cc:	80 83       	st	Z, r24
     9ce:	e0 91 08 01 	lds	r30, 0x0108
     9d2:	f0 91 09 01 	lds	r31, 0x0109
     9d6:	80 e8       	ldi	r24, 0x80	; 128
     9d8:	80 83       	st	Z, r24
     9da:	e0 91 08 01 	lds	r30, 0x0108
     9de:	f0 91 09 01 	lds	r31, 0x0109
     9e2:	81 e8       	ldi	r24, 0x81	; 129
     9e4:	80 83       	st	Z, r24
     9e6:	e0 91 08 01 	lds	r30, 0x0108
     9ea:	f0 91 09 01 	lds	r31, 0x0109
     9ee:	80 e5       	ldi	r24, 0x50	; 80
     9f0:	80 83       	st	Z, r24
     9f2:	e0 91 08 01 	lds	r30, 0x0108
     9f6:	f0 91 09 01 	lds	r31, 0x0109
     9fa:	89 ed       	ldi	r24, 0xD9	; 217
     9fc:	80 83       	st	Z, r24
     9fe:	e0 91 08 01 	lds	r30, 0x0108
     a02:	f0 91 09 01 	lds	r31, 0x0109
     a06:	81 e2       	ldi	r24, 0x21	; 33
     a08:	80 83       	st	Z, r24
     a0a:	e0 91 08 01 	lds	r30, 0x0108
     a0e:	f0 91 09 01 	lds	r31, 0x0109
     a12:	80 e2       	ldi	r24, 0x20	; 32
     a14:	80 83       	st	Z, r24
     a16:	e0 91 08 01 	lds	r30, 0x0108
     a1a:	f0 91 09 01 	lds	r31, 0x0109
     a1e:	10 82       	st	Z, r1
     a20:	e0 91 08 01 	lds	r30, 0x0108
     a24:	f0 91 09 01 	lds	r31, 0x0109
     a28:	8b ed       	ldi	r24, 0xDB	; 219
     a2a:	80 83       	st	Z, r24
     a2c:	e0 91 08 01 	lds	r30, 0x0108
     a30:	f0 91 09 01 	lds	r31, 0x0109
     a34:	80 e3       	ldi	r24, 0x30	; 48
     a36:	80 83       	st	Z, r24
     a38:	e0 91 08 01 	lds	r30, 0x0108
     a3c:	f0 91 09 01 	lds	r31, 0x0109
     a40:	8d ea       	ldi	r24, 0xAD	; 173
     a42:	80 83       	st	Z, r24
     a44:	e0 91 08 01 	lds	r30, 0x0108
     a48:	f0 91 09 01 	lds	r31, 0x0109
     a4c:	10 82       	st	Z, r1
     a4e:	e0 91 08 01 	lds	r30, 0x0108
     a52:	f0 91 09 01 	lds	r31, 0x0109
     a56:	84 ea       	ldi	r24, 0xA4	; 164
     a58:	80 83       	st	Z, r24
     a5a:	e0 91 08 01 	lds	r30, 0x0108
     a5e:	f0 91 09 01 	lds	r31, 0x0109
     a62:	86 ea       	ldi	r24, 0xA6	; 166
     a64:	80 83       	st	Z, r24
     a66:	e0 91 08 01 	lds	r30, 0x0108
     a6a:	f0 91 09 01 	lds	r31, 0x0109
     a6e:	8f ea       	ldi	r24, 0xAF	; 175
     a70:	80 83       	st	Z, r24
	OLED_write_command(ENTIRE_DISPLAY_ON);			  //out  follows  RAM  content

	OLED_write_command(SET_NORMAL_DISPLAY);
	OLED_write_command(DISPLAY_ON);
	
	OLED_reset();
     a72:	0e 94 ab 04 	call	0x956	; 0x956 <OLED_reset>
	OLED_write_command(0x00);
}

void OLED_write_command( uint8_t command )
{
	*oled_cmd = command;
     a76:	e0 91 08 01 	lds	r30, 0x0108
     a7a:	f0 91 09 01 	lds	r31, 0x0109
     a7e:	83 ed       	ldi	r24, 0xD3	; 211
     a80:	80 83       	st	Z, r24
     a82:	e0 91 08 01 	lds	r30, 0x0108
     a86:	f0 91 09 01 	lds	r31, 0x0109
     a8a:	10 82       	st	Z, r1
     a8c:	08 95       	ret

00000a8e <OLED_set_contrast>:
     a8e:	e0 91 08 01 	lds	r30, 0x0108
     a92:	f0 91 09 01 	lds	r31, 0x0109
     a96:	91 e8       	ldi	r25, 0x81	; 129
     a98:	90 83       	st	Z, r25
     a9a:	e0 91 08 01 	lds	r30, 0x0108
     a9e:	f0 91 09 01 	lds	r31, 0x0109
     aa2:	80 83       	st	Z, r24
     aa4:	08 95       	ret

00000aa6 <OLED_print_char>:
	OLED_write_command(SET_CONTRAST_CONTROL);
	OLED_write_command(level);
}

void OLED_print_char( char *character, uint8_t line)
{	
     aa6:	cf 93       	push	r28
     aa8:	df 93       	push	r29
     aaa:	ec 01       	movw	r28, r24
     aac:	86 2f       	mov	r24, r22
	//printf("Character: %c \n", *character);
	if ((*character) == '\n'){
     aae:	98 81       	ld	r25, Y
     ab0:	9a 30       	cpi	r25, 0x0A	; 10
     ab2:	29 f4       	brne	.+10     	; 0xabe <OLED_print_char+0x18>
		//printf("newline\n");
		OLED_pos(line + 1, 0);
     ab4:	60 e0       	ldi	r22, 0x00	; 0
     ab6:	8f 5f       	subi	r24, 0xFF	; 255
     ab8:	0e 94 90 04 	call	0x920	; 0x920 <OLED_pos>
     abc:	1c c0       	rjmp	.+56     	; 0xaf6 <OLED_print_char+0x50>
}

void OLED_print_char( char *character, uint8_t line)
{	
	//printf("Character: %c \n", *character);
	if ((*character) == '\n'){
     abe:	20 e0       	ldi	r18, 0x00	; 0
     ac0:	30 e0       	ldi	r19, 0x00	; 0
		OLED_pos(line + 1, 0);
	}
	else{
		int i;
		for (i = 0; i < 5; i++){
			OLED_write_data(pgm_read_byte(&font5[*character - ' '][i]));
     ac2:	48 81       	ld	r20, Y
     ac4:	50 e0       	ldi	r21, 0x00	; 0
     ac6:	40 52       	subi	r20, 0x20	; 32
     ac8:	51 09       	sbc	r21, r1
     aca:	fa 01       	movw	r30, r20
     acc:	ee 0f       	add	r30, r30
     ace:	ff 1f       	adc	r31, r31
     ad0:	ee 0f       	add	r30, r30
     ad2:	ff 1f       	adc	r31, r31
     ad4:	e4 0f       	add	r30, r20
     ad6:	f5 1f       	adc	r31, r21
     ad8:	e2 0f       	add	r30, r18
     ada:	f3 1f       	adc	r31, r19
     adc:	e0 59       	subi	r30, 0x90	; 144
     ade:	ff 4f       	sbci	r31, 0xFF	; 255
     ae0:	e4 91       	lpm	r30, Z
	*oled_cmd = command;
}

void OLED_write_data( uint8_t data )
{
	*oled_data = data;
     ae2:	a0 91 06 01 	lds	r26, 0x0106
     ae6:	b0 91 07 01 	lds	r27, 0x0107
     aea:	ec 93       	st	X, r30
		//printf("newline\n");
		OLED_pos(line + 1, 0);
	}
	else{
		int i;
		for (i = 0; i < 5; i++){
     aec:	2f 5f       	subi	r18, 0xFF	; 255
     aee:	3f 4f       	sbci	r19, 0xFF	; 255
     af0:	25 30       	cpi	r18, 0x05	; 5
     af2:	31 05       	cpc	r19, r1
     af4:	31 f7       	brne	.-52     	; 0xac2 <OLED_print_char+0x1c>
			OLED_write_data(pgm_read_byte(&font5[*character - ' '][i]));
		}
	}
}
     af6:	df 91       	pop	r29
     af8:	cf 91       	pop	r28
     afa:	08 95       	ret

00000afc <OLED_print>:

void OLED_print(char *c, uint8_t line)
{
     afc:	1f 93       	push	r17
     afe:	cf 93       	push	r28
     b00:	df 93       	push	r29
     b02:	16 2f       	mov	r17, r22
	int i = 0;
	while(c[i] != '\0'){
     b04:	fc 01       	movw	r30, r24
     b06:	20 81       	ld	r18, Z
     b08:	22 23       	and	r18, r18
     b0a:	59 f0       	breq	.+22     	; 0xb22 <OLED_print+0x26>
     b0c:	ec 01       	movw	r28, r24
     b0e:	21 96       	adiw	r28, 0x01	; 1
		//printf("From OLED_print %c \n", c[i]);
		OLED_print_char(&c[i], line);
     b10:	61 2f       	mov	r22, r17
     b12:	0e 94 53 05 	call	0xaa6	; 0xaa6 <OLED_print_char>
}

void OLED_print(char *c, uint8_t line)
{
	int i = 0;
	while(c[i] != '\0'){
     b16:	ce 01       	movw	r24, r28
     b18:	21 96       	adiw	r28, 0x01	; 1
     b1a:	fc 01       	movw	r30, r24
     b1c:	20 81       	ld	r18, Z
     b1e:	21 11       	cpse	r18, r1
     b20:	f7 cf       	rjmp	.-18     	; 0xb10 <OLED_print+0x14>
		//printf("From OLED_print %c \n", c[i]);
		OLED_print_char(&c[i], line);
		i++;
	}
}
     b22:	df 91       	pop	r29
     b24:	cf 91       	pop	r28
     b26:	1f 91       	pop	r17
     b28:	08 95       	ret

00000b2a <OLED_print_arrow>:
	*oled_cmd = command;
}

void OLED_write_data( uint8_t data )
{
	*oled_data = data;
     b2a:	e0 91 06 01 	lds	r30, 0x0106
     b2e:	f0 91 07 01 	lds	r31, 0x0107
     b32:	88 e1       	ldi	r24, 0x18	; 24
     b34:	80 83       	st	Z, r24
     b36:	e0 91 06 01 	lds	r30, 0x0106
     b3a:	f0 91 07 01 	lds	r31, 0x0107
     b3e:	80 83       	st	Z, r24
     b40:	e0 91 06 01 	lds	r30, 0x0106
     b44:	f0 91 07 01 	lds	r31, 0x0107
     b48:	80 83       	st	Z, r24
     b4a:	e0 91 06 01 	lds	r30, 0x0106
     b4e:	f0 91 07 01 	lds	r31, 0x0107
     b52:	80 83       	st	Z, r24
     b54:	e0 91 06 01 	lds	r30, 0x0106
     b58:	f0 91 07 01 	lds	r31, 0x0107
     b5c:	80 83       	st	Z, r24
     b5e:	e0 91 06 01 	lds	r30, 0x0106
     b62:	f0 91 07 01 	lds	r31, 0x0107
     b66:	9f ef       	ldi	r25, 0xFF	; 255
     b68:	90 83       	st	Z, r25
     b6a:	e0 91 06 01 	lds	r30, 0x0106
     b6e:	f0 91 07 01 	lds	r31, 0x0107
     b72:	9e e7       	ldi	r25, 0x7E	; 126
     b74:	90 83       	st	Z, r25
     b76:	e0 91 06 01 	lds	r30, 0x0106
     b7a:	f0 91 07 01 	lds	r31, 0x0107
     b7e:	9c e3       	ldi	r25, 0x3C	; 60
     b80:	90 83       	st	Z, r25
     b82:	e0 91 06 01 	lds	r30, 0x0106
     b86:	f0 91 07 01 	lds	r31, 0x0107
     b8a:	80 83       	st	Z, r24
     b8c:	e0 91 06 01 	lds	r30, 0x0106
     b90:	f0 91 07 01 	lds	r31, 0x0107
     b94:	10 82       	st	Z, r1
     b96:	08 95       	ret

00000b98 <TOUCH_init>:
#include <util/delay.h>

void TOUCH_init( void ){
	
	// Initialize PORT B, pin 0, 1 and 2 as input
	clear_bit(DDRB, PINB1);
     b98:	b9 98       	cbi	0x17, 1	; 23
	clear_bit(DDRB, PINB2);
     b9a:	ba 98       	cbi	0x17, 2	; 23
     b9c:	08 95       	ret

00000b9e <TOUCH_button>:
		//if(test_bit(PINB, PB2)) { return 1; }
		//break;
		//default:
		//return 0;
	//}
	if (test_bit(PINB, PB1) || test_bit(PINB, PB2)){
     b9e:	b1 99       	sbic	0x16, 1	; 22
     ba0:	06 c0       	rjmp	.+12     	; 0xbae <TOUCH_button+0x10>
     ba2:	86 b3       	in	r24, 0x16	; 22
		return 1;
     ba4:	82 fb       	bst	r24, 2
     ba6:	88 27       	eor	r24, r24
     ba8:	80 f9       	bld	r24, 0
     baa:	90 e0       	ldi	r25, 0x00	; 0
     bac:	08 95       	ret
     bae:	81 e0       	ldi	r24, 0x01	; 1
     bb0:	90 e0       	ldi	r25, 0x00	; 0
	}
	return 0;
}
     bb2:	08 95       	ret

00000bb4 <TOUCH_read_adc>:

TOUCH_slider_pos_t TOUCH_read_adc( void ){
     bb4:	cf 93       	push	r28
	TOUCH_slider_pos_t pos;
	pos.left_slider = ADC_read(LEFT_SLIDER_CHANNEL);
     bb6:	83 e0       	ldi	r24, 0x03	; 3
     bb8:	0e 94 b4 02 	call	0x568	; 0x568 <ADC_read>
     bbc:	c8 2f       	mov	r28, r24
     bbe:	8c ec       	ldi	r24, 0xCC	; 204
     bc0:	94 e0       	ldi	r25, 0x04	; 4
     bc2:	01 97       	sbiw	r24, 0x01	; 1
     bc4:	f1 f7       	brne	.-4      	; 0xbc2 <TOUCH_read_adc+0xe>
     bc6:	00 c0       	rjmp	.+0      	; 0xbc8 <TOUCH_read_adc+0x14>
     bc8:	00 00       	nop
	_delay_ms(1);
	pos.right_slider = ADC_read(RIGHT_SLIDER_CHANNEL);
     bca:	82 e0       	ldi	r24, 0x02	; 2
     bcc:	0e 94 b4 02 	call	0x568	; 0x568 <ADC_read>
     bd0:	28 2f       	mov	r18, r24
	
	return pos;
     bd2:	6c 2f       	mov	r22, r28
     bd4:	70 e0       	ldi	r23, 0x00	; 0
     bd6:	82 2f       	mov	r24, r18
     bd8:	90 e0       	ldi	r25, 0x00	; 0
}
     bda:	cf 91       	pop	r28
     bdc:	08 95       	ret

00000bde <TOUCH_get_slider_position>:

TOUCH_slider_pos_t TOUCH_get_slider_position(){
	TOUCH_slider_pos_t current_pos = TOUCH_read_adc();
     bde:	0e 94 da 05 	call	0xbb4	; 0xbb4 <TOUCH_read_adc>
	return current_pos;
     be2:	08 95       	ret

00000be4 <main>:
#include <avr/interrupt.h>



int main( void ){
	cli();
     be4:	f8 94       	cli
	// Initializations 
	UART_Init( MYUBRR );
     be6:	8f e1       	ldi	r24, 0x1F	; 31
     be8:	90 e0       	ldi	r25, 0x00	; 0
     bea:	0e 94 97 02 	call	0x52e	; 0x52e <UART_Init>
	ADC_init();
     bee:	0e 94 aa 02 	call	0x554	; 0x554 <ADC_init>
	
	JOY_init();
     bf2:	0e 94 ef 03 	call	0x7de	; 0x7de <JOY_init>
	TOUCH_init();
     bf6:	0e 94 cc 05 	call	0xb98	; 0xb98 <TOUCH_init>
	OLED_init();
     bfa:	0e 94 b7 04 	call	0x96e	; 0x96e <OLED_init>
	MENU_init();
     bfe:	0e 94 9f 07 	call	0xf3e	; 0xf3e <MENU_init>
	
	SPI_init();
     c02:	0e 94 76 02 	call	0x4ec	; 0x4ec <SPI_init>
	MCP_init();
     c06:	0e 94 21 02 	call	0x442	; 0x442 <MCP_init>
	CAN_init();
     c0a:	0e 94 45 01 	call	0x28a	; 0x28a <CAN_init>
	
	printf("\n\n\nInit done\n");
     c0e:	80 ed       	ldi	r24, 0xD0	; 208
     c10:	92 e0       	ldi	r25, 0x02	; 2
     c12:	0e 94 53 08 	call	0x10a6	; 0x10a6 <puts>
	STATE_OPTION_set(menu);
     c16:	80 e0       	ldi	r24, 0x00	; 0
     c18:	0e 94 bc 07 	call	0xf78	; 0xf78 <STATE_OPTION_set>
	sei();
     c1c:	78 94       	sei
	
	while(1){

		switch (STATE_OPTION_get()){
     c1e:	0e 94 bf 07 	call	0xf7e	; 0xf7e <STATE_OPTION_get>
     c22:	81 30       	cpi	r24, 0x01	; 1
     c24:	49 f0       	breq	.+18     	; 0xc38 <main+0x54>
     c26:	18 f0       	brcs	.+6      	; 0xc2e <main+0x4a>
     c28:	82 30       	cpi	r24, 0x02	; 2
     c2a:	69 f0       	breq	.+26     	; 0xc46 <main+0x62>
     c2c:	13 c0       	rjmp	.+38     	; 0xc54 <main+0x70>
			case menu:
			MENU_select_item();
     c2e:	0e 94 a2 06 	call	0xd44	; 0xd44 <MENU_select_item>
			MENU_navigate();
     c32:	0e 94 2b 07 	call	0xe56	; 0xe56 <MENU_navigate>
				break;
     c36:	11 c0       	rjmp	.+34     	; 0xc5a <main+0x76>
			case game_init:
				SEND2CAN_send_speed(STATE_OPTION_get_speed());
     c38:	0e 94 c7 07 	call	0xf8e	; 0xf8e <STATE_OPTION_get_speed>
     c3c:	0e 94 a9 03 	call	0x752	; 0x752 <SEND2CAN_send_speed>
				//print noe p oled
				STATE_OPTION_set(game);
     c40:	82 e0       	ldi	r24, 0x02	; 2
     c42:	0e 94 bc 07 	call	0xf78	; 0xf78 <STATE_OPTION_set>
			case game:
				SEND2CAN_send_joy_pos_x();
     c46:	0e 94 c6 02 	call	0x58c	; 0x58c <SEND2CAN_send_joy_pos_x>
				SEND2CAN_send_slider_pos();
     c4a:	0e 94 16 03 	call	0x62c	; 0x62c <SEND2CAN_send_slider_pos>
				SEND2CAN_touch_button_pressed();
     c4e:	0e 94 67 03 	call	0x6ce	; 0x6ce <SEND2CAN_touch_button_pressed>
				break;
     c52:	03 c0       	rjmp	.+6      	; 0xc5a <main+0x76>
			default:
				STATE_OPTION_set(menu);
     c54:	80 e0       	ldi	r24, 0x00	; 0
     c56:	0e 94 bc 07 	call	0xf78	; 0xf78 <STATE_OPTION_set>
     c5a:	8c ec       	ldi	r24, 0xCC	; 204
     c5c:	94 e0       	ldi	r25, 0x04	; 4
     c5e:	01 97       	sbiw	r24, 0x01	; 1
     c60:	f1 f7       	brne	.-4      	; 0xc5e <main+0x7a>
     c62:	00 c0       	rjmp	.+0      	; 0xc64 <main+0x80>
     c64:	00 00       	nop
     c66:	db cf       	rjmp	.-74     	; 0xc1e <main+0x3a>

00000c68 <MENU_highlight_item>:
	}
}


void MENU_highlight_item( void )
{
     c68:	cf 93       	push	r28
     c6a:	df 93       	push	r29
	for (int i = 1; i < current_menu->child_num + 1; i++){
     c6c:	e0 91 63 03 	lds	r30, 0x0363
     c70:	f0 91 64 03 	lds	r31, 0x0364
     c74:	82 89       	ldd	r24, Z+18	; 0x12
     c76:	93 89       	ldd	r25, Z+19	; 0x13
     c78:	01 96       	adiw	r24, 0x01	; 1
     c7a:	02 97       	sbiw	r24, 0x02	; 2
     c7c:	b4 f0       	brlt	.+44     	; 0xcaa <MENU_highlight_item+0x42>
     c7e:	c1 e0       	ldi	r28, 0x01	; 1
     c80:	d0 e0       	ldi	r29, 0x00	; 0
		OLED_pos(i, 0);
     c82:	60 e0       	ldi	r22, 0x00	; 0
     c84:	8c 2f       	mov	r24, r28
     c86:	0e 94 90 04 	call	0x920	; 0x920 <OLED_pos>
		OLED_print("  ",i);
     c8a:	6c 2f       	mov	r22, r28
     c8c:	8d ed       	ldi	r24, 0xDD	; 221
     c8e:	92 e0       	ldi	r25, 0x02	; 2
     c90:	0e 94 7e 05 	call	0xafc	; 0xafc <OLED_print>
}


void MENU_highlight_item( void )
{
	for (int i = 1; i < current_menu->child_num + 1; i++){
     c94:	21 96       	adiw	r28, 0x01	; 1
     c96:	e0 91 63 03 	lds	r30, 0x0363
     c9a:	f0 91 64 03 	lds	r31, 0x0364
     c9e:	82 89       	ldd	r24, Z+18	; 0x12
     ca0:	93 89       	ldd	r25, Z+19	; 0x13
     ca2:	01 96       	adiw	r24, 0x01	; 1
     ca4:	c8 17       	cp	r28, r24
     ca6:	d9 07       	cpc	r29, r25
     ca8:	64 f3       	brlt	.-40     	; 0xc82 <MENU_highlight_item+0x1a>
		OLED_pos(i, 0);
		OLED_print("  ",i);
	}
	
	OLED_pos(line, 0);
     caa:	60 e0       	ldi	r22, 0x00	; 0
     cac:	80 91 61 03 	lds	r24, 0x0361
     cb0:	0e 94 90 04 	call	0x920	; 0x920 <OLED_pos>
	OLED_print_arrow();
     cb4:	0e 94 95 05 	call	0xb2a	; 0xb2a <OLED_print_arrow>
     cb8:	df 91       	pop	r29
     cba:	cf 91       	pop	r28
     cbc:	08 95       	ret

00000cbe <MENU_print_menu>:
	MENU_select_item();
	MENU_navigate();
}


void MENU_print_menu(){
     cbe:	cf 93       	push	r28
     cc0:	df 93       	push	r29
	//printf("her\n");
	OLED_reset();
     cc2:	0e 94 ab 04 	call	0x956	; 0x956 <OLED_reset>
	OLED_print(current_menu->name, 0);
     cc6:	e0 91 63 03 	lds	r30, 0x0363
     cca:	f0 91 64 03 	lds	r31, 0x0364
     cce:	60 e0       	ldi	r22, 0x00	; 0
     cd0:	80 81       	ld	r24, Z
     cd2:	91 81       	ldd	r25, Z+1	; 0x01
     cd4:	0e 94 7e 05 	call	0xafc	; 0xafc <OLED_print>
	//printf("her n \n");
	if (current_child!= NULL){
     cd8:	80 91 65 03 	lds	r24, 0x0365
     cdc:	90 91 66 03 	lds	r25, 0x0366
     ce0:	89 2b       	or	r24, r25
     ce2:	11 f0       	breq	.+4      	; 0xce8 <MENU_print_menu+0x2a>
		MENU_highlight_item();
     ce4:	0e 94 34 06 	call	0xc68	; 0xc68 <MENU_highlight_item>
	}
	for (int i =0; i < current_menu->child_num; i++){
     ce8:	e0 91 63 03 	lds	r30, 0x0363
     cec:	f0 91 64 03 	lds	r31, 0x0364
     cf0:	82 89       	ldd	r24, Z+18	; 0x12
     cf2:	93 89       	ldd	r25, Z+19	; 0x13
     cf4:	18 16       	cp	r1, r24
     cf6:	19 06       	cpc	r1, r25
     cf8:	14 f5       	brge	.+68     	; 0xd3e <MENU_print_menu+0x80>
     cfa:	c0 e0       	ldi	r28, 0x00	; 0
     cfc:	d0 e0       	ldi	r29, 0x00	; 0
		//printf("%d \n", current_menu->child_num);
		//printf("in for at child %d \n",i);
		OLED_goto_column(10);
     cfe:	8a e0       	ldi	r24, 0x0A	; 10
     d00:	0e 94 6c 04 	call	0x8d8	; 0x8d8 <OLED_goto_column>
     d04:	6c 2f       	mov	r22, r28
     d06:	6f 5f       	subi	r22, 0xFF	; 255
		OLED_print(current_menu->child[i]->name,i+1);
     d08:	80 91 63 03 	lds	r24, 0x0363
     d0c:	90 91 64 03 	lds	r25, 0x0364
     d10:	fe 01       	movw	r30, r28
     d12:	32 96       	adiw	r30, 0x02	; 2
     d14:	ee 0f       	add	r30, r30
     d16:	ff 1f       	adc	r31, r31
     d18:	e8 0f       	add	r30, r24
     d1a:	f9 1f       	adc	r31, r25
     d1c:	01 90       	ld	r0, Z+
     d1e:	f0 81       	ld	r31, Z
     d20:	e0 2d       	mov	r30, r0
     d22:	80 81       	ld	r24, Z
     d24:	91 81       	ldd	r25, Z+1	; 0x01
     d26:	0e 94 7e 05 	call	0xafc	; 0xafc <OLED_print>
	OLED_print(current_menu->name, 0);
	//printf("her n \n");
	if (current_child!= NULL){
		MENU_highlight_item();
	}
	for (int i =0; i < current_menu->child_num; i++){
     d2a:	21 96       	adiw	r28, 0x01	; 1
     d2c:	e0 91 63 03 	lds	r30, 0x0363
     d30:	f0 91 64 03 	lds	r31, 0x0364
     d34:	82 89       	ldd	r24, Z+18	; 0x12
     d36:	93 89       	ldd	r25, Z+19	; 0x13
     d38:	c8 17       	cp	r28, r24
     d3a:	d9 07       	cpc	r29, r25
     d3c:	04 f3       	brlt	.-64     	; 0xcfe <MENU_print_menu+0x40>
		//printf("%d \n", current_menu->child_num);
		//printf("in for at child %d \n",i);
		OLED_goto_column(10);
		OLED_print(current_menu->child[i]->name,i+1);
	}
}
     d3e:	df 91       	pop	r29
     d40:	cf 91       	pop	r28
     d42:	08 95       	ret

00000d44 <MENU_select_item>:


void MENU_select_item(){
	//int pressed = JOY_button();
	static int inverted;
	if ((JOY_button() || JOY_get_direction() == RIGHT) && current_child!= NULL){
     d44:	0e 94 c9 03 	call	0x792	; 0x792 <JOY_button>
     d48:	89 2b       	or	r24, r25
     d4a:	29 f4       	brne	.+10     	; 0xd56 <MENU_select_item+0x12>
     d4c:	0e 94 39 04 	call	0x872	; 0x872 <JOY_get_direction>
     d50:	82 30       	cpi	r24, 0x02	; 2
     d52:	09 f0       	breq	.+2      	; 0xd56 <MENU_select_item+0x12>
     d54:	7f c0       	rjmp	.+254    	; 0xe54 <MENU_select_item+0x110>
     d56:	e0 91 65 03 	lds	r30, 0x0365
     d5a:	f0 91 66 03 	lds	r31, 0x0366
     d5e:	30 97       	sbiw	r30, 0x00	; 0
     d60:	09 f4       	brne	.+2      	; 0xd64 <MENU_select_item+0x20>
     d62:	78 c0       	rjmp	.+240    	; 0xe54 <MENU_select_item+0x110>
		if (current_child->child[0]!= NULL){
     d64:	84 81       	ldd	r24, Z+4	; 0x04
     d66:	95 81       	ldd	r25, Z+5	; 0x05
     d68:	00 97       	sbiw	r24, 0x00	; 0
     d6a:	89 f0       	breq	.+34     	; 0xd8e <MENU_select_item+0x4a>
			current_menu = current_child;
     d6c:	f0 93 64 03 	sts	0x0364, r31
     d70:	e0 93 63 03 	sts	0x0363, r30
			current_child = current_child->child[0];
     d74:	90 93 66 03 	sts	0x0366, r25
     d78:	80 93 65 03 	sts	0x0365, r24
			line = 1;
     d7c:	81 e0       	ldi	r24, 0x01	; 1
     d7e:	90 e0       	ldi	r25, 0x00	; 0
     d80:	90 93 62 03 	sts	0x0362, r25
     d84:	80 93 61 03 	sts	0x0361, r24
			MENU_print_menu();
     d88:	0e 94 5f 06 	call	0xcbe	; 0xcbe <MENU_print_menu>
     d8c:	5b c0       	rjmp	.+182    	; 0xe44 <MENU_select_item+0x100>
		}else{
			if(current_child == &clear_highscores){
     d8e:	81 e0       	ldi	r24, 0x01	; 1
     d90:	ee 36       	cpi	r30, 0x6E	; 110
     d92:	f8 07       	cpc	r31, r24
     d94:	09 f4       	brne	.+2      	; 0xd98 <MENU_select_item+0x54>
     d96:	56 c0       	rjmp	.+172    	; 0xe44 <MENU_select_item+0x100>
				// Delete highscore
			}
			else if(current_child == &contrast_low)
     d98:	81 e0       	ldi	r24, 0x01	; 1
     d9a:	e2 33       	cpi	r30, 0x32	; 50
     d9c:	f8 07       	cpc	r31, r24
     d9e:	21 f4       	brne	.+8      	; 0xda8 <MENU_select_item+0x64>
				OLED_set_contrast( LOW_CONTRAST );
     da0:	80 e1       	ldi	r24, 0x10	; 16
     da2:	0e 94 47 05 	call	0xa8e	; 0xa8e <OLED_set_contrast>
     da6:	4e c0       	rjmp	.+156    	; 0xe44 <MENU_select_item+0x100>
			else if(current_child == &contrast_medium)
     da8:	81 e0       	ldi	r24, 0x01	; 1
     daa:	ee 31       	cpi	r30, 0x1E	; 30
     dac:	f8 07       	cpc	r31, r24
     dae:	21 f4       	brne	.+8      	; 0xdb8 <MENU_select_item+0x74>
				OLED_set_contrast( MEDIUM_CONTRAST );
     db0:	80 e5       	ldi	r24, 0x50	; 80
     db2:	0e 94 47 05 	call	0xa8e	; 0xa8e <OLED_set_contrast>
     db6:	46 c0       	rjmp	.+140    	; 0xe44 <MENU_select_item+0x100>
			else if(current_child == &contrast_high)
     db8:	81 e0       	ldi	r24, 0x01	; 1
     dba:	ea 30       	cpi	r30, 0x0A	; 10
     dbc:	f8 07       	cpc	r31, r24
     dbe:	21 f4       	brne	.+8      	; 0xdc8 <MENU_select_item+0x84>
				OLED_set_contrast( HIGH_CONTRAST );
     dc0:	80 ef       	ldi	r24, 0xF0	; 240
     dc2:	0e 94 47 05 	call	0xa8e	; 0xa8e <OLED_set_contrast>
     dc6:	3e c0       	rjmp	.+124    	; 0xe44 <MENU_select_item+0x100>
			else if(current_child == &invert_screen){
     dc8:	81 e0       	ldi	r24, 0x01	; 1
     dca:	e6 34       	cpi	r30, 0x46	; 70
     dcc:	f8 07       	cpc	r31, r24
     dce:	c1 f4       	brne	.+48     	; 0xe00 <MENU_select_item+0xbc>
				if (!inverted){
     dd0:	80 91 5b 03 	lds	r24, 0x035B
     dd4:	90 91 5c 03 	lds	r25, 0x035C
     dd8:	89 2b       	or	r24, r25
     dda:	51 f4       	brne	.+20     	; 0xdf0 <MENU_select_item+0xac>
					OLED_write_command(SET_INVERSE_DISPLAY);
     ddc:	87 ea       	ldi	r24, 0xA7	; 167
     dde:	0e 94 66 04 	call	0x8cc	; 0x8cc <OLED_write_command>
					inverted = 1;
     de2:	81 e0       	ldi	r24, 0x01	; 1
     de4:	90 e0       	ldi	r25, 0x00	; 0
     de6:	90 93 5c 03 	sts	0x035C, r25
     dea:	80 93 5b 03 	sts	0x035B, r24
     dee:	2a c0       	rjmp	.+84     	; 0xe44 <MENU_select_item+0x100>
				}else{
					OLED_write_command(SET_NORMAL_DISPLAY);
     df0:	86 ea       	ldi	r24, 0xA6	; 166
     df2:	0e 94 66 04 	call	0x8cc	; 0x8cc <OLED_write_command>
					inverted = 0;
     df6:	10 92 5c 03 	sts	0x035C, r1
     dfa:	10 92 5b 03 	sts	0x035B, r1
     dfe:	22 c0       	rjmp	.+68     	; 0xe44 <MENU_select_item+0x100>
				}
			}else if(current_child == &slow_speed){
     e00:	81 e0       	ldi	r24, 0x01	; 1
     e02:	ea 3a       	cpi	r30, 0xAA	; 170
     e04:	f8 07       	cpc	r31, r24
     e06:	41 f4       	brne	.+16     	; 0xe18 <MENU_select_item+0xd4>
				STATE_OPTION_set_speed(1);
     e08:	81 e0       	ldi	r24, 0x01	; 1
     e0a:	90 e0       	ldi	r25, 0x00	; 0
     e0c:	0e 94 c2 07 	call	0xf84	; 0xf84 <STATE_OPTION_set_speed>
				STATE_OPTION_set(game_init);
     e10:	81 e0       	ldi	r24, 0x01	; 1
     e12:	0e 94 bc 07 	call	0xf78	; 0xf78 <STATE_OPTION_set>
     e16:	16 c0       	rjmp	.+44     	; 0xe44 <MENU_select_item+0x100>
			}else if(current_child == &medium_speed){
     e18:	81 e0       	ldi	r24, 0x01	; 1
     e1a:	e6 39       	cpi	r30, 0x96	; 150
     e1c:	f8 07       	cpc	r31, r24
     e1e:	41 f4       	brne	.+16     	; 0xe30 <MENU_select_item+0xec>
				STATE_OPTION_set_speed(2);
     e20:	82 e0       	ldi	r24, 0x02	; 2
     e22:	90 e0       	ldi	r25, 0x00	; 0
     e24:	0e 94 c2 07 	call	0xf84	; 0xf84 <STATE_OPTION_set_speed>
				STATE_OPTION_set(game_init);
     e28:	81 e0       	ldi	r24, 0x01	; 1
     e2a:	0e 94 bc 07 	call	0xf78	; 0xf78 <STATE_OPTION_set>
     e2e:	0a c0       	rjmp	.+20     	; 0xe44 <MENU_select_item+0x100>
			}else if(current_child == &fast_speed){
     e30:	e2 58       	subi	r30, 0x82	; 130
     e32:	f1 40       	sbci	r31, 0x01	; 1
     e34:	39 f4       	brne	.+14     	; 0xe44 <MENU_select_item+0x100>
				STATE_OPTION_set_speed(3);
     e36:	83 e0       	ldi	r24, 0x03	; 3
     e38:	90 e0       	ldi	r25, 0x00	; 0
     e3a:	0e 94 c2 07 	call	0xf84	; 0xf84 <STATE_OPTION_set_speed>
				STATE_OPTION_set(game_init);
     e3e:	81 e0       	ldi	r24, 0x01	; 1
     e40:	0e 94 bc 07 	call	0xf78	; 0xf78 <STATE_OPTION_set>
			}
		}
		while(JOY_button()|| JOY_get_direction() == RIGHT){}
     e44:	0e 94 c9 03 	call	0x792	; 0x792 <JOY_button>
     e48:	89 2b       	or	r24, r25
     e4a:	e1 f7       	brne	.-8      	; 0xe44 <MENU_select_item+0x100>
     e4c:	0e 94 39 04 	call	0x872	; 0x872 <JOY_get_direction>
     e50:	82 30       	cpi	r24, 0x02	; 2
     e52:	c1 f3       	breq	.-16     	; 0xe44 <MENU_select_item+0x100>
     e54:	08 95       	ret

00000e56 <MENU_navigate>:


void MENU_navigate(){
	//JOY_direction_t dir = JOY_get_direction();
	//printf("Direction: %d \n", dir);
	switch (JOY_get_direction()){
     e56:	0e 94 39 04 	call	0x872	; 0x872 <JOY_get_direction>
     e5a:	83 30       	cpi	r24, 0x03	; 3
     e5c:	39 f1       	breq	.+78     	; 0xeac <MENU_navigate+0x56>
     e5e:	84 30       	cpi	r24, 0x04	; 4
     e60:	09 f4       	brne	.+2      	; 0xe64 <MENU_navigate+0xe>
     e62:	47 c0       	rjmp	.+142    	; 0xef2 <MENU_navigate+0x9c>
     e64:	81 30       	cpi	r24, 0x01	; 1
     e66:	09 f0       	breq	.+2      	; 0xe6a <MENU_navigate+0x14>
     e68:	69 c0       	rjmp	.+210    	; 0xf3c <MENU_navigate+0xe6>
		case LEFT:
			while(JOY_get_direction() == LEFT){}
     e6a:	0e 94 39 04 	call	0x872	; 0x872 <JOY_get_direction>
     e6e:	81 30       	cpi	r24, 0x01	; 1
     e70:	e1 f3       	breq	.-8      	; 0xe6a <MENU_navigate+0x14>
			//printf("LEFT - Current menu: %s \n", current_menu->name);
			if (current_menu->parent != NULL){
     e72:	e0 91 63 03 	lds	r30, 0x0363
     e76:	f0 91 64 03 	lds	r31, 0x0364
     e7a:	02 80       	ldd	r0, Z+2	; 0x02
     e7c:	f3 81       	ldd	r31, Z+3	; 0x03
     e7e:	e0 2d       	mov	r30, r0
     e80:	30 97       	sbiw	r30, 0x00	; 0
     e82:	09 f4       	brne	.+2      	; 0xe86 <MENU_navigate+0x30>
     e84:	5b c0       	rjmp	.+182    	; 0xf3c <MENU_navigate+0xe6>
				line = 1;
     e86:	81 e0       	ldi	r24, 0x01	; 1
     e88:	90 e0       	ldi	r25, 0x00	; 0
     e8a:	90 93 62 03 	sts	0x0362, r25
     e8e:	80 93 61 03 	sts	0x0361, r24
				current_menu = current_menu->parent;
     e92:	f0 93 64 03 	sts	0x0364, r31
     e96:	e0 93 63 03 	sts	0x0363, r30
				current_child = current_menu->child[0];
     e9a:	84 81       	ldd	r24, Z+4	; 0x04
     e9c:	95 81       	ldd	r25, Z+5	; 0x05
     e9e:	90 93 66 03 	sts	0x0366, r25
     ea2:	80 93 65 03 	sts	0x0365, r24
				//printf("LEFT - Current line %d \n", line);
				MENU_print_menu();
     ea6:	0e 94 5f 06 	call	0xcbe	; 0xcbe <MENU_print_menu>
     eaa:	08 95       	ret
			}
			break;
		case UP:
		while(JOY_get_direction() == UP){}
     eac:	0e 94 39 04 	call	0x872	; 0x872 <JOY_get_direction>
     eb0:	83 30       	cpi	r24, 0x03	; 3
     eb2:	e1 f3       	breq	.-8      	; 0xeac <MENU_navigate+0x56>
			//printf("UP - Current menu %s \n", current_menu->name);
			if (line > 1){
     eb4:	80 91 61 03 	lds	r24, 0x0361
     eb8:	90 91 62 03 	lds	r25, 0x0362
     ebc:	82 30       	cpi	r24, 0x02	; 2
     ebe:	91 05       	cpc	r25, r1
     ec0:	ec f1       	brlt	.+122    	; 0xf3c <MENU_navigate+0xe6>
				line = line - 1;
     ec2:	9c 01       	movw	r18, r24
     ec4:	21 50       	subi	r18, 0x01	; 1
     ec6:	31 09       	sbc	r19, r1
     ec8:	30 93 62 03 	sts	0x0362, r19
     ecc:	20 93 61 03 	sts	0x0361, r18
				current_child = current_menu->child[line - 1];
     ed0:	e0 91 63 03 	lds	r30, 0x0363
     ed4:	f0 91 64 03 	lds	r31, 0x0364
     ed8:	88 0f       	add	r24, r24
     eda:	99 1f       	adc	r25, r25
     edc:	e8 0f       	add	r30, r24
     ede:	f9 1f       	adc	r31, r25
     ee0:	80 81       	ld	r24, Z
     ee2:	91 81       	ldd	r25, Z+1	; 0x01
     ee4:	90 93 66 03 	sts	0x0366, r25
     ee8:	80 93 65 03 	sts	0x0365, r24
				//printf("UP - Current line %d \n", line);
				MENU_highlight_item();
     eec:	0e 94 34 06 	call	0xc68	; 0xc68 <MENU_highlight_item>
     ef0:	08 95       	ret
				}
			break;
		case DOWN:
		while(JOY_get_direction() == DOWN){}
     ef2:	0e 94 39 04 	call	0x872	; 0x872 <JOY_get_direction>
     ef6:	84 30       	cpi	r24, 0x04	; 4
     ef8:	e1 f3       	breq	.-8      	; 0xef2 <MENU_navigate+0x9c>
			//printf("DOWN - Current menu %s \n", current_menu->name);
			if (line < current_menu->child_num){
     efa:	e0 91 63 03 	lds	r30, 0x0363
     efe:	f0 91 64 03 	lds	r31, 0x0364
     f02:	80 91 61 03 	lds	r24, 0x0361
     f06:	90 91 62 03 	lds	r25, 0x0362
     f0a:	22 89       	ldd	r18, Z+18	; 0x12
     f0c:	33 89       	ldd	r19, Z+19	; 0x13
     f0e:	82 17       	cp	r24, r18
     f10:	93 07       	cpc	r25, r19
     f12:	a4 f4       	brge	.+40     	; 0xf3c <MENU_navigate+0xe6>
				line = line + 1;
     f14:	9c 01       	movw	r18, r24
     f16:	2f 5f       	subi	r18, 0xFF	; 255
     f18:	3f 4f       	sbci	r19, 0xFF	; 255
     f1a:	30 93 62 03 	sts	0x0362, r19
     f1e:	20 93 61 03 	sts	0x0361, r18
				current_child = current_menu->child[line - 1];
     f22:	02 96       	adiw	r24, 0x02	; 2
     f24:	88 0f       	add	r24, r24
     f26:	99 1f       	adc	r25, r25
     f28:	e8 0f       	add	r30, r24
     f2a:	f9 1f       	adc	r31, r25
     f2c:	80 81       	ld	r24, Z
     f2e:	91 81       	ldd	r25, Z+1	; 0x01
     f30:	90 93 66 03 	sts	0x0366, r25
     f34:	80 93 65 03 	sts	0x0365, r24
				//printf("DOWN - Current line %d \n", line);
				MENU_highlight_item();
     f38:	0e 94 34 06 	call	0xc68	; 0xc68 <MENU_highlight_item>
     f3c:	08 95       	ret

00000f3e <MENU_init>:
int line;



void MENU_init( void ){
	current_menu = &main_menu;
     f3e:	8a ef       	ldi	r24, 0xFA	; 250
     f40:	91 e0       	ldi	r25, 0x01	; 1
     f42:	90 93 64 03 	sts	0x0364, r25
     f46:	80 93 63 03 	sts	0x0363, r24
	current_child = main_menu.child[0];
     f4a:	80 91 fe 01 	lds	r24, 0x01FE
     f4e:	90 91 ff 01 	lds	r25, 0x01FF
     f52:	90 93 66 03 	sts	0x0366, r25
     f56:	80 93 65 03 	sts	0x0365, r24
	line = 1;
     f5a:	81 e0       	ldi	r24, 0x01	; 1
     f5c:	90 e0       	ldi	r25, 0x00	; 0
     f5e:	90 93 62 03 	sts	0x0362, r25
     f62:	80 93 61 03 	sts	0x0361, r24
	MENU_print_menu();
     f66:	0e 94 5f 06 	call	0xcbe	; 0xcbe <MENU_print_menu>
	MENU_highlight_item();
     f6a:	0e 94 34 06 	call	0xc68	; 0xc68 <MENU_highlight_item>
	MENU_select_item();
     f6e:	0e 94 a2 06 	call	0xd44	; 0xd44 <MENU_select_item>
	MENU_navigate();
     f72:	0e 94 2b 07 	call	0xe56	; 0xe56 <MENU_navigate>
     f76:	08 95       	ret

00000f78 <STATE_OPTION_set>:

state_t state;
int speed;

void STATE_OPTION_set(state_t new_state){
	state = new_state;
     f78:	80 93 67 03 	sts	0x0367, r24
     f7c:	08 95       	ret

00000f7e <STATE_OPTION_get>:
}

state_t STATE_OPTION_get(void){
	return state;
}
     f7e:	80 91 67 03 	lds	r24, 0x0367
     f82:	08 95       	ret

00000f84 <STATE_OPTION_set_speed>:

void STATE_OPTION_set_speed(int new_speed){
	speed = new_speed;
     f84:	90 93 69 03 	sts	0x0369, r25
     f88:	80 93 68 03 	sts	0x0368, r24
     f8c:	08 95       	ret

00000f8e <STATE_OPTION_get_speed>:
}

int STATE_OPTION_get_speed(void){
	return speed;
     f8e:	80 91 68 03 	lds	r24, 0x0368
     f92:	90 91 69 03 	lds	r25, 0x0369
     f96:	08 95       	ret

00000f98 <__divmodhi4>:
     f98:	97 fb       	bst	r25, 7
     f9a:	07 2e       	mov	r0, r23
     f9c:	16 f4       	brtc	.+4      	; 0xfa2 <__divmodhi4+0xa>
     f9e:	00 94       	com	r0
     fa0:	07 d0       	rcall	.+14     	; 0xfb0 <__divmodhi4_neg1>
     fa2:	77 fd       	sbrc	r23, 7
     fa4:	09 d0       	rcall	.+18     	; 0xfb8 <__divmodhi4_neg2>
     fa6:	0e 94 e0 07 	call	0xfc0	; 0xfc0 <__udivmodhi4>
     faa:	07 fc       	sbrc	r0, 7
     fac:	05 d0       	rcall	.+10     	; 0xfb8 <__divmodhi4_neg2>
     fae:	3e f4       	brtc	.+14     	; 0xfbe <__divmodhi4_exit>

00000fb0 <__divmodhi4_neg1>:
     fb0:	90 95       	com	r25
     fb2:	81 95       	neg	r24
     fb4:	9f 4f       	sbci	r25, 0xFF	; 255
     fb6:	08 95       	ret

00000fb8 <__divmodhi4_neg2>:
     fb8:	70 95       	com	r23
     fba:	61 95       	neg	r22
     fbc:	7f 4f       	sbci	r23, 0xFF	; 255

00000fbe <__divmodhi4_exit>:
     fbe:	08 95       	ret

00000fc0 <__udivmodhi4>:
     fc0:	aa 1b       	sub	r26, r26
     fc2:	bb 1b       	sub	r27, r27
     fc4:	51 e1       	ldi	r21, 0x11	; 17
     fc6:	07 c0       	rjmp	.+14     	; 0xfd6 <__udivmodhi4_ep>

00000fc8 <__udivmodhi4_loop>:
     fc8:	aa 1f       	adc	r26, r26
     fca:	bb 1f       	adc	r27, r27
     fcc:	a6 17       	cp	r26, r22
     fce:	b7 07       	cpc	r27, r23
     fd0:	10 f0       	brcs	.+4      	; 0xfd6 <__udivmodhi4_ep>
     fd2:	a6 1b       	sub	r26, r22
     fd4:	b7 0b       	sbc	r27, r23

00000fd6 <__udivmodhi4_ep>:
     fd6:	88 1f       	adc	r24, r24
     fd8:	99 1f       	adc	r25, r25
     fda:	5a 95       	dec	r21
     fdc:	a9 f7       	brne	.-22     	; 0xfc8 <__udivmodhi4_loop>
     fde:	80 95       	com	r24
     fe0:	90 95       	com	r25
     fe2:	bc 01       	movw	r22, r24
     fe4:	cd 01       	movw	r24, r26
     fe6:	08 95       	ret

00000fe8 <fdevopen>:
     fe8:	0f 93       	push	r16
     fea:	1f 93       	push	r17
     fec:	cf 93       	push	r28
     fee:	df 93       	push	r29
     ff0:	ec 01       	movw	r28, r24
     ff2:	8b 01       	movw	r16, r22
     ff4:	00 97       	sbiw	r24, 0x00	; 0
     ff6:	31 f4       	brne	.+12     	; 0x1004 <fdevopen+0x1c>
     ff8:	61 15       	cp	r22, r1
     ffa:	71 05       	cpc	r23, r1
     ffc:	19 f4       	brne	.+6      	; 0x1004 <fdevopen+0x1c>
     ffe:	80 e0       	ldi	r24, 0x00	; 0
    1000:	90 e0       	ldi	r25, 0x00	; 0
    1002:	38 c0       	rjmp	.+112    	; 0x1074 <fdevopen+0x8c>
    1004:	6e e0       	ldi	r22, 0x0E	; 14
    1006:	70 e0       	ldi	r23, 0x00	; 0
    1008:	81 e0       	ldi	r24, 0x01	; 1
    100a:	90 e0       	ldi	r25, 0x00	; 0
    100c:	0e 94 52 0a 	call	0x14a4	; 0x14a4 <calloc>
    1010:	fc 01       	movw	r30, r24
    1012:	00 97       	sbiw	r24, 0x00	; 0
    1014:	a1 f3       	breq	.-24     	; 0xffe <fdevopen+0x16>
    1016:	80 e8       	ldi	r24, 0x80	; 128
    1018:	83 83       	std	Z+3, r24	; 0x03
    101a:	01 15       	cp	r16, r1
    101c:	11 05       	cpc	r17, r1
    101e:	71 f0       	breq	.+28     	; 0x103c <fdevopen+0x54>
    1020:	13 87       	std	Z+11, r17	; 0x0b
    1022:	02 87       	std	Z+10, r16	; 0x0a
    1024:	81 e8       	ldi	r24, 0x81	; 129
    1026:	83 83       	std	Z+3, r24	; 0x03
    1028:	80 91 6a 03 	lds	r24, 0x036A
    102c:	90 91 6b 03 	lds	r25, 0x036B
    1030:	89 2b       	or	r24, r25
    1032:	21 f4       	brne	.+8      	; 0x103c <fdevopen+0x54>
    1034:	f0 93 6b 03 	sts	0x036B, r31
    1038:	e0 93 6a 03 	sts	0x036A, r30
    103c:	20 97       	sbiw	r28, 0x00	; 0
    103e:	c9 f0       	breq	.+50     	; 0x1072 <fdevopen+0x8a>
    1040:	d1 87       	std	Z+9, r29	; 0x09
    1042:	c0 87       	std	Z+8, r28	; 0x08
    1044:	83 81       	ldd	r24, Z+3	; 0x03
    1046:	82 60       	ori	r24, 0x02	; 2
    1048:	83 83       	std	Z+3, r24	; 0x03
    104a:	80 91 6c 03 	lds	r24, 0x036C
    104e:	90 91 6d 03 	lds	r25, 0x036D
    1052:	89 2b       	or	r24, r25
    1054:	71 f4       	brne	.+28     	; 0x1072 <fdevopen+0x8a>
    1056:	f0 93 6d 03 	sts	0x036D, r31
    105a:	e0 93 6c 03 	sts	0x036C, r30
    105e:	80 91 6e 03 	lds	r24, 0x036E
    1062:	90 91 6f 03 	lds	r25, 0x036F
    1066:	89 2b       	or	r24, r25
    1068:	21 f4       	brne	.+8      	; 0x1072 <fdevopen+0x8a>
    106a:	f0 93 6f 03 	sts	0x036F, r31
    106e:	e0 93 6e 03 	sts	0x036E, r30
    1072:	cf 01       	movw	r24, r30
    1074:	df 91       	pop	r29
    1076:	cf 91       	pop	r28
    1078:	1f 91       	pop	r17
    107a:	0f 91       	pop	r16
    107c:	08 95       	ret

0000107e <printf>:
    107e:	a0 e0       	ldi	r26, 0x00	; 0
    1080:	b0 e0       	ldi	r27, 0x00	; 0
    1082:	e5 e4       	ldi	r30, 0x45	; 69
    1084:	f8 e0       	ldi	r31, 0x08	; 8
    1086:	0c 94 52 0c 	jmp	0x18a4	; 0x18a4 <__prologue_saves__+0x20>
    108a:	fe 01       	movw	r30, r28
    108c:	35 96       	adiw	r30, 0x05	; 5
    108e:	61 91       	ld	r22, Z+
    1090:	71 91       	ld	r23, Z+
    1092:	af 01       	movw	r20, r30
    1094:	80 91 6c 03 	lds	r24, 0x036C
    1098:	90 91 6d 03 	lds	r25, 0x036D
    109c:	0e 94 80 08 	call	0x1100	; 0x1100 <vfprintf>
    10a0:	e2 e0       	ldi	r30, 0x02	; 2
    10a2:	0c 94 6e 0c 	jmp	0x18dc	; 0x18dc <__epilogue_restores__+0x20>

000010a6 <puts>:
    10a6:	0f 93       	push	r16
    10a8:	1f 93       	push	r17
    10aa:	cf 93       	push	r28
    10ac:	df 93       	push	r29
    10ae:	e0 91 6c 03 	lds	r30, 0x036C
    10b2:	f0 91 6d 03 	lds	r31, 0x036D
    10b6:	23 81       	ldd	r18, Z+3	; 0x03
    10b8:	21 ff       	sbrs	r18, 1
    10ba:	1b c0       	rjmp	.+54     	; 0x10f2 <puts+0x4c>
    10bc:	ec 01       	movw	r28, r24
    10be:	00 e0       	ldi	r16, 0x00	; 0
    10c0:	10 e0       	ldi	r17, 0x00	; 0
    10c2:	89 91       	ld	r24, Y+
    10c4:	60 91 6c 03 	lds	r22, 0x036C
    10c8:	70 91 6d 03 	lds	r23, 0x036D
    10cc:	db 01       	movw	r26, r22
    10ce:	18 96       	adiw	r26, 0x08	; 8
    10d0:	ed 91       	ld	r30, X+
    10d2:	fc 91       	ld	r31, X
    10d4:	19 97       	sbiw	r26, 0x09	; 9
    10d6:	88 23       	and	r24, r24
    10d8:	31 f0       	breq	.+12     	; 0x10e6 <puts+0x40>
    10da:	09 95       	icall
    10dc:	89 2b       	or	r24, r25
    10de:	89 f3       	breq	.-30     	; 0x10c2 <puts+0x1c>
    10e0:	0f ef       	ldi	r16, 0xFF	; 255
    10e2:	1f ef       	ldi	r17, 0xFF	; 255
    10e4:	ee cf       	rjmp	.-36     	; 0x10c2 <puts+0x1c>
    10e6:	8a e0       	ldi	r24, 0x0A	; 10
    10e8:	09 95       	icall
    10ea:	89 2b       	or	r24, r25
    10ec:	11 f4       	brne	.+4      	; 0x10f2 <puts+0x4c>
    10ee:	c8 01       	movw	r24, r16
    10f0:	02 c0       	rjmp	.+4      	; 0x10f6 <puts+0x50>
    10f2:	8f ef       	ldi	r24, 0xFF	; 255
    10f4:	9f ef       	ldi	r25, 0xFF	; 255
    10f6:	df 91       	pop	r29
    10f8:	cf 91       	pop	r28
    10fa:	1f 91       	pop	r17
    10fc:	0f 91       	pop	r16
    10fe:	08 95       	ret

00001100 <vfprintf>:
    1100:	ac e0       	ldi	r26, 0x0C	; 12
    1102:	b0 e0       	ldi	r27, 0x00	; 0
    1104:	e6 e8       	ldi	r30, 0x86	; 134
    1106:	f8 e0       	ldi	r31, 0x08	; 8
    1108:	0c 94 42 0c 	jmp	0x1884	; 0x1884 <__prologue_saves__>
    110c:	7c 01       	movw	r14, r24
    110e:	6b 01       	movw	r12, r22
    1110:	8a 01       	movw	r16, r20
    1112:	fc 01       	movw	r30, r24
    1114:	17 82       	std	Z+7, r1	; 0x07
    1116:	16 82       	std	Z+6, r1	; 0x06
    1118:	83 81       	ldd	r24, Z+3	; 0x03
    111a:	81 ff       	sbrs	r24, 1
    111c:	bd c1       	rjmp	.+890    	; 0x1498 <vfprintf+0x398>
    111e:	ce 01       	movw	r24, r28
    1120:	01 96       	adiw	r24, 0x01	; 1
    1122:	4c 01       	movw	r8, r24
    1124:	f7 01       	movw	r30, r14
    1126:	93 81       	ldd	r25, Z+3	; 0x03
    1128:	f6 01       	movw	r30, r12
    112a:	93 fd       	sbrc	r25, 3
    112c:	85 91       	lpm	r24, Z+
    112e:	93 ff       	sbrs	r25, 3
    1130:	81 91       	ld	r24, Z+
    1132:	6f 01       	movw	r12, r30
    1134:	88 23       	and	r24, r24
    1136:	09 f4       	brne	.+2      	; 0x113a <vfprintf+0x3a>
    1138:	ab c1       	rjmp	.+854    	; 0x1490 <vfprintf+0x390>
    113a:	85 32       	cpi	r24, 0x25	; 37
    113c:	39 f4       	brne	.+14     	; 0x114c <vfprintf+0x4c>
    113e:	93 fd       	sbrc	r25, 3
    1140:	85 91       	lpm	r24, Z+
    1142:	93 ff       	sbrs	r25, 3
    1144:	81 91       	ld	r24, Z+
    1146:	6f 01       	movw	r12, r30
    1148:	85 32       	cpi	r24, 0x25	; 37
    114a:	29 f4       	brne	.+10     	; 0x1156 <vfprintf+0x56>
    114c:	b7 01       	movw	r22, r14
    114e:	90 e0       	ldi	r25, 0x00	; 0
    1150:	0e 94 b2 0b 	call	0x1764	; 0x1764 <fputc>
    1154:	e7 cf       	rjmp	.-50     	; 0x1124 <vfprintf+0x24>
    1156:	51 2c       	mov	r5, r1
    1158:	31 2c       	mov	r3, r1
    115a:	20 e0       	ldi	r18, 0x00	; 0
    115c:	20 32       	cpi	r18, 0x20	; 32
    115e:	a0 f4       	brcc	.+40     	; 0x1188 <vfprintf+0x88>
    1160:	8b 32       	cpi	r24, 0x2B	; 43
    1162:	69 f0       	breq	.+26     	; 0x117e <vfprintf+0x7e>
    1164:	30 f4       	brcc	.+12     	; 0x1172 <vfprintf+0x72>
    1166:	80 32       	cpi	r24, 0x20	; 32
    1168:	59 f0       	breq	.+22     	; 0x1180 <vfprintf+0x80>
    116a:	83 32       	cpi	r24, 0x23	; 35
    116c:	69 f4       	brne	.+26     	; 0x1188 <vfprintf+0x88>
    116e:	20 61       	ori	r18, 0x10	; 16
    1170:	2c c0       	rjmp	.+88     	; 0x11ca <vfprintf+0xca>
    1172:	8d 32       	cpi	r24, 0x2D	; 45
    1174:	39 f0       	breq	.+14     	; 0x1184 <vfprintf+0x84>
    1176:	80 33       	cpi	r24, 0x30	; 48
    1178:	39 f4       	brne	.+14     	; 0x1188 <vfprintf+0x88>
    117a:	21 60       	ori	r18, 0x01	; 1
    117c:	26 c0       	rjmp	.+76     	; 0x11ca <vfprintf+0xca>
    117e:	22 60       	ori	r18, 0x02	; 2
    1180:	24 60       	ori	r18, 0x04	; 4
    1182:	23 c0       	rjmp	.+70     	; 0x11ca <vfprintf+0xca>
    1184:	28 60       	ori	r18, 0x08	; 8
    1186:	21 c0       	rjmp	.+66     	; 0x11ca <vfprintf+0xca>
    1188:	27 fd       	sbrc	r18, 7
    118a:	27 c0       	rjmp	.+78     	; 0x11da <vfprintf+0xda>
    118c:	30 ed       	ldi	r19, 0xD0	; 208
    118e:	38 0f       	add	r19, r24
    1190:	3a 30       	cpi	r19, 0x0A	; 10
    1192:	78 f4       	brcc	.+30     	; 0x11b2 <vfprintf+0xb2>
    1194:	26 ff       	sbrs	r18, 6
    1196:	06 c0       	rjmp	.+12     	; 0x11a4 <vfprintf+0xa4>
    1198:	fa e0       	ldi	r31, 0x0A	; 10
    119a:	5f 9e       	mul	r5, r31
    119c:	30 0d       	add	r19, r0
    119e:	11 24       	eor	r1, r1
    11a0:	53 2e       	mov	r5, r19
    11a2:	13 c0       	rjmp	.+38     	; 0x11ca <vfprintf+0xca>
    11a4:	8a e0       	ldi	r24, 0x0A	; 10
    11a6:	38 9e       	mul	r3, r24
    11a8:	30 0d       	add	r19, r0
    11aa:	11 24       	eor	r1, r1
    11ac:	33 2e       	mov	r3, r19
    11ae:	20 62       	ori	r18, 0x20	; 32
    11b0:	0c c0       	rjmp	.+24     	; 0x11ca <vfprintf+0xca>
    11b2:	8e 32       	cpi	r24, 0x2E	; 46
    11b4:	21 f4       	brne	.+8      	; 0x11be <vfprintf+0xbe>
    11b6:	26 fd       	sbrc	r18, 6
    11b8:	6b c1       	rjmp	.+726    	; 0x1490 <vfprintf+0x390>
    11ba:	20 64       	ori	r18, 0x40	; 64
    11bc:	06 c0       	rjmp	.+12     	; 0x11ca <vfprintf+0xca>
    11be:	8c 36       	cpi	r24, 0x6C	; 108
    11c0:	11 f4       	brne	.+4      	; 0x11c6 <vfprintf+0xc6>
    11c2:	20 68       	ori	r18, 0x80	; 128
    11c4:	02 c0       	rjmp	.+4      	; 0x11ca <vfprintf+0xca>
    11c6:	88 36       	cpi	r24, 0x68	; 104
    11c8:	41 f4       	brne	.+16     	; 0x11da <vfprintf+0xda>
    11ca:	f6 01       	movw	r30, r12
    11cc:	93 fd       	sbrc	r25, 3
    11ce:	85 91       	lpm	r24, Z+
    11d0:	93 ff       	sbrs	r25, 3
    11d2:	81 91       	ld	r24, Z+
    11d4:	6f 01       	movw	r12, r30
    11d6:	81 11       	cpse	r24, r1
    11d8:	c1 cf       	rjmp	.-126    	; 0x115c <vfprintf+0x5c>
    11da:	98 2f       	mov	r25, r24
    11dc:	9f 7d       	andi	r25, 0xDF	; 223
    11de:	95 54       	subi	r25, 0x45	; 69
    11e0:	93 30       	cpi	r25, 0x03	; 3
    11e2:	28 f4       	brcc	.+10     	; 0x11ee <vfprintf+0xee>
    11e4:	0c 5f       	subi	r16, 0xFC	; 252
    11e6:	1f 4f       	sbci	r17, 0xFF	; 255
    11e8:	ff e3       	ldi	r31, 0x3F	; 63
    11ea:	f9 83       	std	Y+1, r31	; 0x01
    11ec:	0d c0       	rjmp	.+26     	; 0x1208 <vfprintf+0x108>
    11ee:	83 36       	cpi	r24, 0x63	; 99
    11f0:	31 f0       	breq	.+12     	; 0x11fe <vfprintf+0xfe>
    11f2:	83 37       	cpi	r24, 0x73	; 115
    11f4:	71 f0       	breq	.+28     	; 0x1212 <vfprintf+0x112>
    11f6:	83 35       	cpi	r24, 0x53	; 83
    11f8:	09 f0       	breq	.+2      	; 0x11fc <vfprintf+0xfc>
    11fa:	5b c0       	rjmp	.+182    	; 0x12b2 <vfprintf+0x1b2>
    11fc:	22 c0       	rjmp	.+68     	; 0x1242 <vfprintf+0x142>
    11fe:	f8 01       	movw	r30, r16
    1200:	80 81       	ld	r24, Z
    1202:	89 83       	std	Y+1, r24	; 0x01
    1204:	0e 5f       	subi	r16, 0xFE	; 254
    1206:	1f 4f       	sbci	r17, 0xFF	; 255
    1208:	44 24       	eor	r4, r4
    120a:	43 94       	inc	r4
    120c:	51 2c       	mov	r5, r1
    120e:	54 01       	movw	r10, r8
    1210:	15 c0       	rjmp	.+42     	; 0x123c <vfprintf+0x13c>
    1212:	38 01       	movw	r6, r16
    1214:	f2 e0       	ldi	r31, 0x02	; 2
    1216:	6f 0e       	add	r6, r31
    1218:	71 1c       	adc	r7, r1
    121a:	f8 01       	movw	r30, r16
    121c:	a0 80       	ld	r10, Z
    121e:	b1 80       	ldd	r11, Z+1	; 0x01
    1220:	26 ff       	sbrs	r18, 6
    1222:	03 c0       	rjmp	.+6      	; 0x122a <vfprintf+0x12a>
    1224:	65 2d       	mov	r22, r5
    1226:	70 e0       	ldi	r23, 0x00	; 0
    1228:	02 c0       	rjmp	.+4      	; 0x122e <vfprintf+0x12e>
    122a:	6f ef       	ldi	r22, 0xFF	; 255
    122c:	7f ef       	ldi	r23, 0xFF	; 255
    122e:	c5 01       	movw	r24, r10
    1230:	2c 87       	std	Y+12, r18	; 0x0c
    1232:	0e 94 a7 0b 	call	0x174e	; 0x174e <strnlen>
    1236:	2c 01       	movw	r4, r24
    1238:	83 01       	movw	r16, r6
    123a:	2c 85       	ldd	r18, Y+12	; 0x0c
    123c:	2f 77       	andi	r18, 0x7F	; 127
    123e:	22 2e       	mov	r2, r18
    1240:	17 c0       	rjmp	.+46     	; 0x1270 <vfprintf+0x170>
    1242:	38 01       	movw	r6, r16
    1244:	f2 e0       	ldi	r31, 0x02	; 2
    1246:	6f 0e       	add	r6, r31
    1248:	71 1c       	adc	r7, r1
    124a:	f8 01       	movw	r30, r16
    124c:	a0 80       	ld	r10, Z
    124e:	b1 80       	ldd	r11, Z+1	; 0x01
    1250:	26 ff       	sbrs	r18, 6
    1252:	03 c0       	rjmp	.+6      	; 0x125a <vfprintf+0x15a>
    1254:	65 2d       	mov	r22, r5
    1256:	70 e0       	ldi	r23, 0x00	; 0
    1258:	02 c0       	rjmp	.+4      	; 0x125e <vfprintf+0x15e>
    125a:	6f ef       	ldi	r22, 0xFF	; 255
    125c:	7f ef       	ldi	r23, 0xFF	; 255
    125e:	c5 01       	movw	r24, r10
    1260:	2c 87       	std	Y+12, r18	; 0x0c
    1262:	0e 94 95 0b 	call	0x172a	; 0x172a <strnlen_P>
    1266:	2c 01       	movw	r4, r24
    1268:	2c 85       	ldd	r18, Y+12	; 0x0c
    126a:	20 68       	ori	r18, 0x80	; 128
    126c:	22 2e       	mov	r2, r18
    126e:	83 01       	movw	r16, r6
    1270:	23 fc       	sbrc	r2, 3
    1272:	1b c0       	rjmp	.+54     	; 0x12aa <vfprintf+0x1aa>
    1274:	83 2d       	mov	r24, r3
    1276:	90 e0       	ldi	r25, 0x00	; 0
    1278:	48 16       	cp	r4, r24
    127a:	59 06       	cpc	r5, r25
    127c:	b0 f4       	brcc	.+44     	; 0x12aa <vfprintf+0x1aa>
    127e:	b7 01       	movw	r22, r14
    1280:	80 e2       	ldi	r24, 0x20	; 32
    1282:	90 e0       	ldi	r25, 0x00	; 0
    1284:	0e 94 b2 0b 	call	0x1764	; 0x1764 <fputc>
    1288:	3a 94       	dec	r3
    128a:	f4 cf       	rjmp	.-24     	; 0x1274 <vfprintf+0x174>
    128c:	f5 01       	movw	r30, r10
    128e:	27 fc       	sbrc	r2, 7
    1290:	85 91       	lpm	r24, Z+
    1292:	27 fe       	sbrs	r2, 7
    1294:	81 91       	ld	r24, Z+
    1296:	5f 01       	movw	r10, r30
    1298:	b7 01       	movw	r22, r14
    129a:	90 e0       	ldi	r25, 0x00	; 0
    129c:	0e 94 b2 0b 	call	0x1764	; 0x1764 <fputc>
    12a0:	31 10       	cpse	r3, r1
    12a2:	3a 94       	dec	r3
    12a4:	f1 e0       	ldi	r31, 0x01	; 1
    12a6:	4f 1a       	sub	r4, r31
    12a8:	51 08       	sbc	r5, r1
    12aa:	41 14       	cp	r4, r1
    12ac:	51 04       	cpc	r5, r1
    12ae:	71 f7       	brne	.-36     	; 0x128c <vfprintf+0x18c>
    12b0:	e5 c0       	rjmp	.+458    	; 0x147c <vfprintf+0x37c>
    12b2:	84 36       	cpi	r24, 0x64	; 100
    12b4:	11 f0       	breq	.+4      	; 0x12ba <vfprintf+0x1ba>
    12b6:	89 36       	cpi	r24, 0x69	; 105
    12b8:	39 f5       	brne	.+78     	; 0x1308 <vfprintf+0x208>
    12ba:	f8 01       	movw	r30, r16
    12bc:	27 ff       	sbrs	r18, 7
    12be:	07 c0       	rjmp	.+14     	; 0x12ce <vfprintf+0x1ce>
    12c0:	60 81       	ld	r22, Z
    12c2:	71 81       	ldd	r23, Z+1	; 0x01
    12c4:	82 81       	ldd	r24, Z+2	; 0x02
    12c6:	93 81       	ldd	r25, Z+3	; 0x03
    12c8:	0c 5f       	subi	r16, 0xFC	; 252
    12ca:	1f 4f       	sbci	r17, 0xFF	; 255
    12cc:	08 c0       	rjmp	.+16     	; 0x12de <vfprintf+0x1de>
    12ce:	60 81       	ld	r22, Z
    12d0:	71 81       	ldd	r23, Z+1	; 0x01
    12d2:	88 27       	eor	r24, r24
    12d4:	77 fd       	sbrc	r23, 7
    12d6:	80 95       	com	r24
    12d8:	98 2f       	mov	r25, r24
    12da:	0e 5f       	subi	r16, 0xFE	; 254
    12dc:	1f 4f       	sbci	r17, 0xFF	; 255
    12de:	2f 76       	andi	r18, 0x6F	; 111
    12e0:	b2 2e       	mov	r11, r18
    12e2:	97 ff       	sbrs	r25, 7
    12e4:	09 c0       	rjmp	.+18     	; 0x12f8 <vfprintf+0x1f8>
    12e6:	90 95       	com	r25
    12e8:	80 95       	com	r24
    12ea:	70 95       	com	r23
    12ec:	61 95       	neg	r22
    12ee:	7f 4f       	sbci	r23, 0xFF	; 255
    12f0:	8f 4f       	sbci	r24, 0xFF	; 255
    12f2:	9f 4f       	sbci	r25, 0xFF	; 255
    12f4:	20 68       	ori	r18, 0x80	; 128
    12f6:	b2 2e       	mov	r11, r18
    12f8:	2a e0       	ldi	r18, 0x0A	; 10
    12fa:	30 e0       	ldi	r19, 0x00	; 0
    12fc:	a4 01       	movw	r20, r8
    12fe:	0e 94 e4 0b 	call	0x17c8	; 0x17c8 <__ultoa_invert>
    1302:	a8 2e       	mov	r10, r24
    1304:	a8 18       	sub	r10, r8
    1306:	44 c0       	rjmp	.+136    	; 0x1390 <vfprintf+0x290>
    1308:	85 37       	cpi	r24, 0x75	; 117
    130a:	29 f4       	brne	.+10     	; 0x1316 <vfprintf+0x216>
    130c:	2f 7e       	andi	r18, 0xEF	; 239
    130e:	b2 2e       	mov	r11, r18
    1310:	2a e0       	ldi	r18, 0x0A	; 10
    1312:	30 e0       	ldi	r19, 0x00	; 0
    1314:	25 c0       	rjmp	.+74     	; 0x1360 <vfprintf+0x260>
    1316:	f2 2f       	mov	r31, r18
    1318:	f9 7f       	andi	r31, 0xF9	; 249
    131a:	bf 2e       	mov	r11, r31
    131c:	8f 36       	cpi	r24, 0x6F	; 111
    131e:	c1 f0       	breq	.+48     	; 0x1350 <vfprintf+0x250>
    1320:	18 f4       	brcc	.+6      	; 0x1328 <vfprintf+0x228>
    1322:	88 35       	cpi	r24, 0x58	; 88
    1324:	79 f0       	breq	.+30     	; 0x1344 <vfprintf+0x244>
    1326:	b4 c0       	rjmp	.+360    	; 0x1490 <vfprintf+0x390>
    1328:	80 37       	cpi	r24, 0x70	; 112
    132a:	19 f0       	breq	.+6      	; 0x1332 <vfprintf+0x232>
    132c:	88 37       	cpi	r24, 0x78	; 120
    132e:	21 f0       	breq	.+8      	; 0x1338 <vfprintf+0x238>
    1330:	af c0       	rjmp	.+350    	; 0x1490 <vfprintf+0x390>
    1332:	2f 2f       	mov	r18, r31
    1334:	20 61       	ori	r18, 0x10	; 16
    1336:	b2 2e       	mov	r11, r18
    1338:	b4 fe       	sbrs	r11, 4
    133a:	0d c0       	rjmp	.+26     	; 0x1356 <vfprintf+0x256>
    133c:	8b 2d       	mov	r24, r11
    133e:	84 60       	ori	r24, 0x04	; 4
    1340:	b8 2e       	mov	r11, r24
    1342:	09 c0       	rjmp	.+18     	; 0x1356 <vfprintf+0x256>
    1344:	24 ff       	sbrs	r18, 4
    1346:	0a c0       	rjmp	.+20     	; 0x135c <vfprintf+0x25c>
    1348:	9f 2f       	mov	r25, r31
    134a:	96 60       	ori	r25, 0x06	; 6
    134c:	b9 2e       	mov	r11, r25
    134e:	06 c0       	rjmp	.+12     	; 0x135c <vfprintf+0x25c>
    1350:	28 e0       	ldi	r18, 0x08	; 8
    1352:	30 e0       	ldi	r19, 0x00	; 0
    1354:	05 c0       	rjmp	.+10     	; 0x1360 <vfprintf+0x260>
    1356:	20 e1       	ldi	r18, 0x10	; 16
    1358:	30 e0       	ldi	r19, 0x00	; 0
    135a:	02 c0       	rjmp	.+4      	; 0x1360 <vfprintf+0x260>
    135c:	20 e1       	ldi	r18, 0x10	; 16
    135e:	32 e0       	ldi	r19, 0x02	; 2
    1360:	f8 01       	movw	r30, r16
    1362:	b7 fe       	sbrs	r11, 7
    1364:	07 c0       	rjmp	.+14     	; 0x1374 <vfprintf+0x274>
    1366:	60 81       	ld	r22, Z
    1368:	71 81       	ldd	r23, Z+1	; 0x01
    136a:	82 81       	ldd	r24, Z+2	; 0x02
    136c:	93 81       	ldd	r25, Z+3	; 0x03
    136e:	0c 5f       	subi	r16, 0xFC	; 252
    1370:	1f 4f       	sbci	r17, 0xFF	; 255
    1372:	06 c0       	rjmp	.+12     	; 0x1380 <vfprintf+0x280>
    1374:	60 81       	ld	r22, Z
    1376:	71 81       	ldd	r23, Z+1	; 0x01
    1378:	80 e0       	ldi	r24, 0x00	; 0
    137a:	90 e0       	ldi	r25, 0x00	; 0
    137c:	0e 5f       	subi	r16, 0xFE	; 254
    137e:	1f 4f       	sbci	r17, 0xFF	; 255
    1380:	a4 01       	movw	r20, r8
    1382:	0e 94 e4 0b 	call	0x17c8	; 0x17c8 <__ultoa_invert>
    1386:	a8 2e       	mov	r10, r24
    1388:	a8 18       	sub	r10, r8
    138a:	fb 2d       	mov	r31, r11
    138c:	ff 77       	andi	r31, 0x7F	; 127
    138e:	bf 2e       	mov	r11, r31
    1390:	b6 fe       	sbrs	r11, 6
    1392:	0b c0       	rjmp	.+22     	; 0x13aa <vfprintf+0x2aa>
    1394:	2b 2d       	mov	r18, r11
    1396:	2e 7f       	andi	r18, 0xFE	; 254
    1398:	a5 14       	cp	r10, r5
    139a:	50 f4       	brcc	.+20     	; 0x13b0 <vfprintf+0x2b0>
    139c:	b4 fe       	sbrs	r11, 4
    139e:	0a c0       	rjmp	.+20     	; 0x13b4 <vfprintf+0x2b4>
    13a0:	b2 fc       	sbrc	r11, 2
    13a2:	08 c0       	rjmp	.+16     	; 0x13b4 <vfprintf+0x2b4>
    13a4:	2b 2d       	mov	r18, r11
    13a6:	2e 7e       	andi	r18, 0xEE	; 238
    13a8:	05 c0       	rjmp	.+10     	; 0x13b4 <vfprintf+0x2b4>
    13aa:	7a 2c       	mov	r7, r10
    13ac:	2b 2d       	mov	r18, r11
    13ae:	03 c0       	rjmp	.+6      	; 0x13b6 <vfprintf+0x2b6>
    13b0:	7a 2c       	mov	r7, r10
    13b2:	01 c0       	rjmp	.+2      	; 0x13b6 <vfprintf+0x2b6>
    13b4:	75 2c       	mov	r7, r5
    13b6:	24 ff       	sbrs	r18, 4
    13b8:	0d c0       	rjmp	.+26     	; 0x13d4 <vfprintf+0x2d4>
    13ba:	fe 01       	movw	r30, r28
    13bc:	ea 0d       	add	r30, r10
    13be:	f1 1d       	adc	r31, r1
    13c0:	80 81       	ld	r24, Z
    13c2:	80 33       	cpi	r24, 0x30	; 48
    13c4:	11 f4       	brne	.+4      	; 0x13ca <vfprintf+0x2ca>
    13c6:	29 7e       	andi	r18, 0xE9	; 233
    13c8:	09 c0       	rjmp	.+18     	; 0x13dc <vfprintf+0x2dc>
    13ca:	22 ff       	sbrs	r18, 2
    13cc:	06 c0       	rjmp	.+12     	; 0x13da <vfprintf+0x2da>
    13ce:	73 94       	inc	r7
    13d0:	73 94       	inc	r7
    13d2:	04 c0       	rjmp	.+8      	; 0x13dc <vfprintf+0x2dc>
    13d4:	82 2f       	mov	r24, r18
    13d6:	86 78       	andi	r24, 0x86	; 134
    13d8:	09 f0       	breq	.+2      	; 0x13dc <vfprintf+0x2dc>
    13da:	73 94       	inc	r7
    13dc:	23 fd       	sbrc	r18, 3
    13de:	13 c0       	rjmp	.+38     	; 0x1406 <vfprintf+0x306>
    13e0:	20 ff       	sbrs	r18, 0
    13e2:	06 c0       	rjmp	.+12     	; 0x13f0 <vfprintf+0x2f0>
    13e4:	5a 2c       	mov	r5, r10
    13e6:	73 14       	cp	r7, r3
    13e8:	18 f4       	brcc	.+6      	; 0x13f0 <vfprintf+0x2f0>
    13ea:	53 0c       	add	r5, r3
    13ec:	57 18       	sub	r5, r7
    13ee:	73 2c       	mov	r7, r3
    13f0:	73 14       	cp	r7, r3
    13f2:	68 f4       	brcc	.+26     	; 0x140e <vfprintf+0x30e>
    13f4:	b7 01       	movw	r22, r14
    13f6:	80 e2       	ldi	r24, 0x20	; 32
    13f8:	90 e0       	ldi	r25, 0x00	; 0
    13fa:	2c 87       	std	Y+12, r18	; 0x0c
    13fc:	0e 94 b2 0b 	call	0x1764	; 0x1764 <fputc>
    1400:	73 94       	inc	r7
    1402:	2c 85       	ldd	r18, Y+12	; 0x0c
    1404:	f5 cf       	rjmp	.-22     	; 0x13f0 <vfprintf+0x2f0>
    1406:	73 14       	cp	r7, r3
    1408:	10 f4       	brcc	.+4      	; 0x140e <vfprintf+0x30e>
    140a:	37 18       	sub	r3, r7
    140c:	01 c0       	rjmp	.+2      	; 0x1410 <vfprintf+0x310>
    140e:	31 2c       	mov	r3, r1
    1410:	24 ff       	sbrs	r18, 4
    1412:	12 c0       	rjmp	.+36     	; 0x1438 <vfprintf+0x338>
    1414:	b7 01       	movw	r22, r14
    1416:	80 e3       	ldi	r24, 0x30	; 48
    1418:	90 e0       	ldi	r25, 0x00	; 0
    141a:	2c 87       	std	Y+12, r18	; 0x0c
    141c:	0e 94 b2 0b 	call	0x1764	; 0x1764 <fputc>
    1420:	2c 85       	ldd	r18, Y+12	; 0x0c
    1422:	22 ff       	sbrs	r18, 2
    1424:	17 c0       	rjmp	.+46     	; 0x1454 <vfprintf+0x354>
    1426:	21 ff       	sbrs	r18, 1
    1428:	03 c0       	rjmp	.+6      	; 0x1430 <vfprintf+0x330>
    142a:	88 e5       	ldi	r24, 0x58	; 88
    142c:	90 e0       	ldi	r25, 0x00	; 0
    142e:	02 c0       	rjmp	.+4      	; 0x1434 <vfprintf+0x334>
    1430:	88 e7       	ldi	r24, 0x78	; 120
    1432:	90 e0       	ldi	r25, 0x00	; 0
    1434:	b7 01       	movw	r22, r14
    1436:	0c c0       	rjmp	.+24     	; 0x1450 <vfprintf+0x350>
    1438:	82 2f       	mov	r24, r18
    143a:	86 78       	andi	r24, 0x86	; 134
    143c:	59 f0       	breq	.+22     	; 0x1454 <vfprintf+0x354>
    143e:	21 fd       	sbrc	r18, 1
    1440:	02 c0       	rjmp	.+4      	; 0x1446 <vfprintf+0x346>
    1442:	80 e2       	ldi	r24, 0x20	; 32
    1444:	01 c0       	rjmp	.+2      	; 0x1448 <vfprintf+0x348>
    1446:	8b e2       	ldi	r24, 0x2B	; 43
    1448:	27 fd       	sbrc	r18, 7
    144a:	8d e2       	ldi	r24, 0x2D	; 45
    144c:	b7 01       	movw	r22, r14
    144e:	90 e0       	ldi	r25, 0x00	; 0
    1450:	0e 94 b2 0b 	call	0x1764	; 0x1764 <fputc>
    1454:	a5 14       	cp	r10, r5
    1456:	38 f4       	brcc	.+14     	; 0x1466 <vfprintf+0x366>
    1458:	b7 01       	movw	r22, r14
    145a:	80 e3       	ldi	r24, 0x30	; 48
    145c:	90 e0       	ldi	r25, 0x00	; 0
    145e:	0e 94 b2 0b 	call	0x1764	; 0x1764 <fputc>
    1462:	5a 94       	dec	r5
    1464:	f7 cf       	rjmp	.-18     	; 0x1454 <vfprintf+0x354>
    1466:	aa 94       	dec	r10
    1468:	f4 01       	movw	r30, r8
    146a:	ea 0d       	add	r30, r10
    146c:	f1 1d       	adc	r31, r1
    146e:	80 81       	ld	r24, Z
    1470:	b7 01       	movw	r22, r14
    1472:	90 e0       	ldi	r25, 0x00	; 0
    1474:	0e 94 b2 0b 	call	0x1764	; 0x1764 <fputc>
    1478:	a1 10       	cpse	r10, r1
    147a:	f5 cf       	rjmp	.-22     	; 0x1466 <vfprintf+0x366>
    147c:	33 20       	and	r3, r3
    147e:	09 f4       	brne	.+2      	; 0x1482 <vfprintf+0x382>
    1480:	51 ce       	rjmp	.-862    	; 0x1124 <vfprintf+0x24>
    1482:	b7 01       	movw	r22, r14
    1484:	80 e2       	ldi	r24, 0x20	; 32
    1486:	90 e0       	ldi	r25, 0x00	; 0
    1488:	0e 94 b2 0b 	call	0x1764	; 0x1764 <fputc>
    148c:	3a 94       	dec	r3
    148e:	f6 cf       	rjmp	.-20     	; 0x147c <vfprintf+0x37c>
    1490:	f7 01       	movw	r30, r14
    1492:	86 81       	ldd	r24, Z+6	; 0x06
    1494:	97 81       	ldd	r25, Z+7	; 0x07
    1496:	02 c0       	rjmp	.+4      	; 0x149c <vfprintf+0x39c>
    1498:	8f ef       	ldi	r24, 0xFF	; 255
    149a:	9f ef       	ldi	r25, 0xFF	; 255
    149c:	2c 96       	adiw	r28, 0x0c	; 12
    149e:	e2 e1       	ldi	r30, 0x12	; 18
    14a0:	0c 94 5e 0c 	jmp	0x18bc	; 0x18bc <__epilogue_restores__>

000014a4 <calloc>:
    14a4:	0f 93       	push	r16
    14a6:	1f 93       	push	r17
    14a8:	cf 93       	push	r28
    14aa:	df 93       	push	r29
    14ac:	86 9f       	mul	r24, r22
    14ae:	80 01       	movw	r16, r0
    14b0:	87 9f       	mul	r24, r23
    14b2:	10 0d       	add	r17, r0
    14b4:	96 9f       	mul	r25, r22
    14b6:	10 0d       	add	r17, r0
    14b8:	11 24       	eor	r1, r1
    14ba:	c8 01       	movw	r24, r16
    14bc:	0e 94 6e 0a 	call	0x14dc	; 0x14dc <malloc>
    14c0:	ec 01       	movw	r28, r24
    14c2:	00 97       	sbiw	r24, 0x00	; 0
    14c4:	29 f0       	breq	.+10     	; 0x14d0 <calloc+0x2c>
    14c6:	a8 01       	movw	r20, r16
    14c8:	60 e0       	ldi	r22, 0x00	; 0
    14ca:	70 e0       	ldi	r23, 0x00	; 0
    14cc:	0e 94 a0 0b 	call	0x1740	; 0x1740 <memset>
    14d0:	ce 01       	movw	r24, r28
    14d2:	df 91       	pop	r29
    14d4:	cf 91       	pop	r28
    14d6:	1f 91       	pop	r17
    14d8:	0f 91       	pop	r16
    14da:	08 95       	ret

000014dc <malloc>:
    14dc:	cf 93       	push	r28
    14de:	df 93       	push	r29
    14e0:	82 30       	cpi	r24, 0x02	; 2
    14e2:	91 05       	cpc	r25, r1
    14e4:	10 f4       	brcc	.+4      	; 0x14ea <malloc+0xe>
    14e6:	82 e0       	ldi	r24, 0x02	; 2
    14e8:	90 e0       	ldi	r25, 0x00	; 0
    14ea:	e0 91 72 03 	lds	r30, 0x0372
    14ee:	f0 91 73 03 	lds	r31, 0x0373
    14f2:	20 e0       	ldi	r18, 0x00	; 0
    14f4:	30 e0       	ldi	r19, 0x00	; 0
    14f6:	a0 e0       	ldi	r26, 0x00	; 0
    14f8:	b0 e0       	ldi	r27, 0x00	; 0
    14fa:	30 97       	sbiw	r30, 0x00	; 0
    14fc:	39 f1       	breq	.+78     	; 0x154c <malloc+0x70>
    14fe:	40 81       	ld	r20, Z
    1500:	51 81       	ldd	r21, Z+1	; 0x01
    1502:	48 17       	cp	r20, r24
    1504:	59 07       	cpc	r21, r25
    1506:	b8 f0       	brcs	.+46     	; 0x1536 <malloc+0x5a>
    1508:	48 17       	cp	r20, r24
    150a:	59 07       	cpc	r21, r25
    150c:	71 f4       	brne	.+28     	; 0x152a <malloc+0x4e>
    150e:	82 81       	ldd	r24, Z+2	; 0x02
    1510:	93 81       	ldd	r25, Z+3	; 0x03
    1512:	10 97       	sbiw	r26, 0x00	; 0
    1514:	29 f0       	breq	.+10     	; 0x1520 <malloc+0x44>
    1516:	13 96       	adiw	r26, 0x03	; 3
    1518:	9c 93       	st	X, r25
    151a:	8e 93       	st	-X, r24
    151c:	12 97       	sbiw	r26, 0x02	; 2
    151e:	2c c0       	rjmp	.+88     	; 0x1578 <malloc+0x9c>
    1520:	90 93 73 03 	sts	0x0373, r25
    1524:	80 93 72 03 	sts	0x0372, r24
    1528:	27 c0       	rjmp	.+78     	; 0x1578 <malloc+0x9c>
    152a:	21 15       	cp	r18, r1
    152c:	31 05       	cpc	r19, r1
    152e:	31 f0       	breq	.+12     	; 0x153c <malloc+0x60>
    1530:	42 17       	cp	r20, r18
    1532:	53 07       	cpc	r21, r19
    1534:	18 f0       	brcs	.+6      	; 0x153c <malloc+0x60>
    1536:	a9 01       	movw	r20, r18
    1538:	db 01       	movw	r26, r22
    153a:	01 c0       	rjmp	.+2      	; 0x153e <malloc+0x62>
    153c:	ef 01       	movw	r28, r30
    153e:	9a 01       	movw	r18, r20
    1540:	bd 01       	movw	r22, r26
    1542:	df 01       	movw	r26, r30
    1544:	02 80       	ldd	r0, Z+2	; 0x02
    1546:	f3 81       	ldd	r31, Z+3	; 0x03
    1548:	e0 2d       	mov	r30, r0
    154a:	d7 cf       	rjmp	.-82     	; 0x14fa <malloc+0x1e>
    154c:	21 15       	cp	r18, r1
    154e:	31 05       	cpc	r19, r1
    1550:	f9 f0       	breq	.+62     	; 0x1590 <malloc+0xb4>
    1552:	28 1b       	sub	r18, r24
    1554:	39 0b       	sbc	r19, r25
    1556:	24 30       	cpi	r18, 0x04	; 4
    1558:	31 05       	cpc	r19, r1
    155a:	80 f4       	brcc	.+32     	; 0x157c <malloc+0xa0>
    155c:	8a 81       	ldd	r24, Y+2	; 0x02
    155e:	9b 81       	ldd	r25, Y+3	; 0x03
    1560:	61 15       	cp	r22, r1
    1562:	71 05       	cpc	r23, r1
    1564:	21 f0       	breq	.+8      	; 0x156e <malloc+0x92>
    1566:	fb 01       	movw	r30, r22
    1568:	93 83       	std	Z+3, r25	; 0x03
    156a:	82 83       	std	Z+2, r24	; 0x02
    156c:	04 c0       	rjmp	.+8      	; 0x1576 <malloc+0x9a>
    156e:	90 93 73 03 	sts	0x0373, r25
    1572:	80 93 72 03 	sts	0x0372, r24
    1576:	fe 01       	movw	r30, r28
    1578:	32 96       	adiw	r30, 0x02	; 2
    157a:	44 c0       	rjmp	.+136    	; 0x1604 <malloc+0x128>
    157c:	fe 01       	movw	r30, r28
    157e:	e2 0f       	add	r30, r18
    1580:	f3 1f       	adc	r31, r19
    1582:	81 93       	st	Z+, r24
    1584:	91 93       	st	Z+, r25
    1586:	22 50       	subi	r18, 0x02	; 2
    1588:	31 09       	sbc	r19, r1
    158a:	39 83       	std	Y+1, r19	; 0x01
    158c:	28 83       	st	Y, r18
    158e:	3a c0       	rjmp	.+116    	; 0x1604 <malloc+0x128>
    1590:	20 91 70 03 	lds	r18, 0x0370
    1594:	30 91 71 03 	lds	r19, 0x0371
    1598:	23 2b       	or	r18, r19
    159a:	41 f4       	brne	.+16     	; 0x15ac <malloc+0xd0>
    159c:	20 91 02 01 	lds	r18, 0x0102
    15a0:	30 91 03 01 	lds	r19, 0x0103
    15a4:	30 93 71 03 	sts	0x0371, r19
    15a8:	20 93 70 03 	sts	0x0370, r18
    15ac:	20 91 00 01 	lds	r18, 0x0100
    15b0:	30 91 01 01 	lds	r19, 0x0101
    15b4:	21 15       	cp	r18, r1
    15b6:	31 05       	cpc	r19, r1
    15b8:	41 f4       	brne	.+16     	; 0x15ca <malloc+0xee>
    15ba:	2d b7       	in	r18, 0x3d	; 61
    15bc:	3e b7       	in	r19, 0x3e	; 62
    15be:	40 91 04 01 	lds	r20, 0x0104
    15c2:	50 91 05 01 	lds	r21, 0x0105
    15c6:	24 1b       	sub	r18, r20
    15c8:	35 0b       	sbc	r19, r21
    15ca:	e0 91 70 03 	lds	r30, 0x0370
    15ce:	f0 91 71 03 	lds	r31, 0x0371
    15d2:	e2 17       	cp	r30, r18
    15d4:	f3 07       	cpc	r31, r19
    15d6:	a0 f4       	brcc	.+40     	; 0x1600 <malloc+0x124>
    15d8:	2e 1b       	sub	r18, r30
    15da:	3f 0b       	sbc	r19, r31
    15dc:	28 17       	cp	r18, r24
    15de:	39 07       	cpc	r19, r25
    15e0:	78 f0       	brcs	.+30     	; 0x1600 <malloc+0x124>
    15e2:	ac 01       	movw	r20, r24
    15e4:	4e 5f       	subi	r20, 0xFE	; 254
    15e6:	5f 4f       	sbci	r21, 0xFF	; 255
    15e8:	24 17       	cp	r18, r20
    15ea:	35 07       	cpc	r19, r21
    15ec:	48 f0       	brcs	.+18     	; 0x1600 <malloc+0x124>
    15ee:	4e 0f       	add	r20, r30
    15f0:	5f 1f       	adc	r21, r31
    15f2:	50 93 71 03 	sts	0x0371, r21
    15f6:	40 93 70 03 	sts	0x0370, r20
    15fa:	81 93       	st	Z+, r24
    15fc:	91 93       	st	Z+, r25
    15fe:	02 c0       	rjmp	.+4      	; 0x1604 <malloc+0x128>
    1600:	e0 e0       	ldi	r30, 0x00	; 0
    1602:	f0 e0       	ldi	r31, 0x00	; 0
    1604:	cf 01       	movw	r24, r30
    1606:	df 91       	pop	r29
    1608:	cf 91       	pop	r28
    160a:	08 95       	ret

0000160c <free>:
    160c:	cf 93       	push	r28
    160e:	df 93       	push	r29
    1610:	00 97       	sbiw	r24, 0x00	; 0
    1612:	09 f4       	brne	.+2      	; 0x1616 <free+0xa>
    1614:	87 c0       	rjmp	.+270    	; 0x1724 <free+0x118>
    1616:	fc 01       	movw	r30, r24
    1618:	32 97       	sbiw	r30, 0x02	; 2
    161a:	13 82       	std	Z+3, r1	; 0x03
    161c:	12 82       	std	Z+2, r1	; 0x02
    161e:	c0 91 72 03 	lds	r28, 0x0372
    1622:	d0 91 73 03 	lds	r29, 0x0373
    1626:	20 97       	sbiw	r28, 0x00	; 0
    1628:	81 f4       	brne	.+32     	; 0x164a <free+0x3e>
    162a:	20 81       	ld	r18, Z
    162c:	31 81       	ldd	r19, Z+1	; 0x01
    162e:	28 0f       	add	r18, r24
    1630:	39 1f       	adc	r19, r25
    1632:	80 91 70 03 	lds	r24, 0x0370
    1636:	90 91 71 03 	lds	r25, 0x0371
    163a:	82 17       	cp	r24, r18
    163c:	93 07       	cpc	r25, r19
    163e:	79 f5       	brne	.+94     	; 0x169e <free+0x92>
    1640:	f0 93 71 03 	sts	0x0371, r31
    1644:	e0 93 70 03 	sts	0x0370, r30
    1648:	6d c0       	rjmp	.+218    	; 0x1724 <free+0x118>
    164a:	de 01       	movw	r26, r28
    164c:	20 e0       	ldi	r18, 0x00	; 0
    164e:	30 e0       	ldi	r19, 0x00	; 0
    1650:	ae 17       	cp	r26, r30
    1652:	bf 07       	cpc	r27, r31
    1654:	50 f4       	brcc	.+20     	; 0x166a <free+0x5e>
    1656:	12 96       	adiw	r26, 0x02	; 2
    1658:	4d 91       	ld	r20, X+
    165a:	5c 91       	ld	r21, X
    165c:	13 97       	sbiw	r26, 0x03	; 3
    165e:	9d 01       	movw	r18, r26
    1660:	41 15       	cp	r20, r1
    1662:	51 05       	cpc	r21, r1
    1664:	09 f1       	breq	.+66     	; 0x16a8 <free+0x9c>
    1666:	da 01       	movw	r26, r20
    1668:	f3 cf       	rjmp	.-26     	; 0x1650 <free+0x44>
    166a:	b3 83       	std	Z+3, r27	; 0x03
    166c:	a2 83       	std	Z+2, r26	; 0x02
    166e:	40 81       	ld	r20, Z
    1670:	51 81       	ldd	r21, Z+1	; 0x01
    1672:	84 0f       	add	r24, r20
    1674:	95 1f       	adc	r25, r21
    1676:	8a 17       	cp	r24, r26
    1678:	9b 07       	cpc	r25, r27
    167a:	71 f4       	brne	.+28     	; 0x1698 <free+0x8c>
    167c:	8d 91       	ld	r24, X+
    167e:	9c 91       	ld	r25, X
    1680:	11 97       	sbiw	r26, 0x01	; 1
    1682:	84 0f       	add	r24, r20
    1684:	95 1f       	adc	r25, r21
    1686:	02 96       	adiw	r24, 0x02	; 2
    1688:	91 83       	std	Z+1, r25	; 0x01
    168a:	80 83       	st	Z, r24
    168c:	12 96       	adiw	r26, 0x02	; 2
    168e:	8d 91       	ld	r24, X+
    1690:	9c 91       	ld	r25, X
    1692:	13 97       	sbiw	r26, 0x03	; 3
    1694:	93 83       	std	Z+3, r25	; 0x03
    1696:	82 83       	std	Z+2, r24	; 0x02
    1698:	21 15       	cp	r18, r1
    169a:	31 05       	cpc	r19, r1
    169c:	29 f4       	brne	.+10     	; 0x16a8 <free+0x9c>
    169e:	f0 93 73 03 	sts	0x0373, r31
    16a2:	e0 93 72 03 	sts	0x0372, r30
    16a6:	3e c0       	rjmp	.+124    	; 0x1724 <free+0x118>
    16a8:	d9 01       	movw	r26, r18
    16aa:	13 96       	adiw	r26, 0x03	; 3
    16ac:	fc 93       	st	X, r31
    16ae:	ee 93       	st	-X, r30
    16b0:	12 97       	sbiw	r26, 0x02	; 2
    16b2:	4d 91       	ld	r20, X+
    16b4:	5d 91       	ld	r21, X+
    16b6:	a4 0f       	add	r26, r20
    16b8:	b5 1f       	adc	r27, r21
    16ba:	ea 17       	cp	r30, r26
    16bc:	fb 07       	cpc	r31, r27
    16be:	79 f4       	brne	.+30     	; 0x16de <free+0xd2>
    16c0:	80 81       	ld	r24, Z
    16c2:	91 81       	ldd	r25, Z+1	; 0x01
    16c4:	84 0f       	add	r24, r20
    16c6:	95 1f       	adc	r25, r21
    16c8:	02 96       	adiw	r24, 0x02	; 2
    16ca:	d9 01       	movw	r26, r18
    16cc:	11 96       	adiw	r26, 0x01	; 1
    16ce:	9c 93       	st	X, r25
    16d0:	8e 93       	st	-X, r24
    16d2:	82 81       	ldd	r24, Z+2	; 0x02
    16d4:	93 81       	ldd	r25, Z+3	; 0x03
    16d6:	13 96       	adiw	r26, 0x03	; 3
    16d8:	9c 93       	st	X, r25
    16da:	8e 93       	st	-X, r24
    16dc:	12 97       	sbiw	r26, 0x02	; 2
    16de:	e0 e0       	ldi	r30, 0x00	; 0
    16e0:	f0 e0       	ldi	r31, 0x00	; 0
    16e2:	8a 81       	ldd	r24, Y+2	; 0x02
    16e4:	9b 81       	ldd	r25, Y+3	; 0x03
    16e6:	00 97       	sbiw	r24, 0x00	; 0
    16e8:	19 f0       	breq	.+6      	; 0x16f0 <free+0xe4>
    16ea:	fe 01       	movw	r30, r28
    16ec:	ec 01       	movw	r28, r24
    16ee:	f9 cf       	rjmp	.-14     	; 0x16e2 <free+0xd6>
    16f0:	ce 01       	movw	r24, r28
    16f2:	02 96       	adiw	r24, 0x02	; 2
    16f4:	28 81       	ld	r18, Y
    16f6:	39 81       	ldd	r19, Y+1	; 0x01
    16f8:	82 0f       	add	r24, r18
    16fa:	93 1f       	adc	r25, r19
    16fc:	20 91 70 03 	lds	r18, 0x0370
    1700:	30 91 71 03 	lds	r19, 0x0371
    1704:	28 17       	cp	r18, r24
    1706:	39 07       	cpc	r19, r25
    1708:	69 f4       	brne	.+26     	; 0x1724 <free+0x118>
    170a:	30 97       	sbiw	r30, 0x00	; 0
    170c:	29 f4       	brne	.+10     	; 0x1718 <free+0x10c>
    170e:	10 92 73 03 	sts	0x0373, r1
    1712:	10 92 72 03 	sts	0x0372, r1
    1716:	02 c0       	rjmp	.+4      	; 0x171c <free+0x110>
    1718:	13 82       	std	Z+3, r1	; 0x03
    171a:	12 82       	std	Z+2, r1	; 0x02
    171c:	d0 93 71 03 	sts	0x0371, r29
    1720:	c0 93 70 03 	sts	0x0370, r28
    1724:	df 91       	pop	r29
    1726:	cf 91       	pop	r28
    1728:	08 95       	ret

0000172a <strnlen_P>:
    172a:	fc 01       	movw	r30, r24
    172c:	05 90       	lpm	r0, Z+
    172e:	61 50       	subi	r22, 0x01	; 1
    1730:	70 40       	sbci	r23, 0x00	; 0
    1732:	01 10       	cpse	r0, r1
    1734:	d8 f7       	brcc	.-10     	; 0x172c <strnlen_P+0x2>
    1736:	80 95       	com	r24
    1738:	90 95       	com	r25
    173a:	8e 0f       	add	r24, r30
    173c:	9f 1f       	adc	r25, r31
    173e:	08 95       	ret

00001740 <memset>:
    1740:	dc 01       	movw	r26, r24
    1742:	01 c0       	rjmp	.+2      	; 0x1746 <memset+0x6>
    1744:	6d 93       	st	X+, r22
    1746:	41 50       	subi	r20, 0x01	; 1
    1748:	50 40       	sbci	r21, 0x00	; 0
    174a:	e0 f7       	brcc	.-8      	; 0x1744 <memset+0x4>
    174c:	08 95       	ret

0000174e <strnlen>:
    174e:	fc 01       	movw	r30, r24
    1750:	61 50       	subi	r22, 0x01	; 1
    1752:	70 40       	sbci	r23, 0x00	; 0
    1754:	01 90       	ld	r0, Z+
    1756:	01 10       	cpse	r0, r1
    1758:	d8 f7       	brcc	.-10     	; 0x1750 <strnlen+0x2>
    175a:	80 95       	com	r24
    175c:	90 95       	com	r25
    175e:	8e 0f       	add	r24, r30
    1760:	9f 1f       	adc	r25, r31
    1762:	08 95       	ret

00001764 <fputc>:
    1764:	0f 93       	push	r16
    1766:	1f 93       	push	r17
    1768:	cf 93       	push	r28
    176a:	df 93       	push	r29
    176c:	18 2f       	mov	r17, r24
    176e:	09 2f       	mov	r16, r25
    1770:	eb 01       	movw	r28, r22
    1772:	8b 81       	ldd	r24, Y+3	; 0x03
    1774:	81 fd       	sbrc	r24, 1
    1776:	03 c0       	rjmp	.+6      	; 0x177e <fputc+0x1a>
    1778:	8f ef       	ldi	r24, 0xFF	; 255
    177a:	9f ef       	ldi	r25, 0xFF	; 255
    177c:	20 c0       	rjmp	.+64     	; 0x17be <fputc+0x5a>
    177e:	82 ff       	sbrs	r24, 2
    1780:	10 c0       	rjmp	.+32     	; 0x17a2 <fputc+0x3e>
    1782:	4e 81       	ldd	r20, Y+6	; 0x06
    1784:	5f 81       	ldd	r21, Y+7	; 0x07
    1786:	2c 81       	ldd	r18, Y+4	; 0x04
    1788:	3d 81       	ldd	r19, Y+5	; 0x05
    178a:	42 17       	cp	r20, r18
    178c:	53 07       	cpc	r21, r19
    178e:	7c f4       	brge	.+30     	; 0x17ae <fputc+0x4a>
    1790:	e8 81       	ld	r30, Y
    1792:	f9 81       	ldd	r31, Y+1	; 0x01
    1794:	9f 01       	movw	r18, r30
    1796:	2f 5f       	subi	r18, 0xFF	; 255
    1798:	3f 4f       	sbci	r19, 0xFF	; 255
    179a:	39 83       	std	Y+1, r19	; 0x01
    179c:	28 83       	st	Y, r18
    179e:	10 83       	st	Z, r17
    17a0:	06 c0       	rjmp	.+12     	; 0x17ae <fputc+0x4a>
    17a2:	e8 85       	ldd	r30, Y+8	; 0x08
    17a4:	f9 85       	ldd	r31, Y+9	; 0x09
    17a6:	81 2f       	mov	r24, r17
    17a8:	09 95       	icall
    17aa:	89 2b       	or	r24, r25
    17ac:	29 f7       	brne	.-54     	; 0x1778 <fputc+0x14>
    17ae:	2e 81       	ldd	r18, Y+6	; 0x06
    17b0:	3f 81       	ldd	r19, Y+7	; 0x07
    17b2:	2f 5f       	subi	r18, 0xFF	; 255
    17b4:	3f 4f       	sbci	r19, 0xFF	; 255
    17b6:	3f 83       	std	Y+7, r19	; 0x07
    17b8:	2e 83       	std	Y+6, r18	; 0x06
    17ba:	81 2f       	mov	r24, r17
    17bc:	90 2f       	mov	r25, r16
    17be:	df 91       	pop	r29
    17c0:	cf 91       	pop	r28
    17c2:	1f 91       	pop	r17
    17c4:	0f 91       	pop	r16
    17c6:	08 95       	ret

000017c8 <__ultoa_invert>:
    17c8:	fa 01       	movw	r30, r20
    17ca:	aa 27       	eor	r26, r26
    17cc:	28 30       	cpi	r18, 0x08	; 8
    17ce:	51 f1       	breq	.+84     	; 0x1824 <__ultoa_invert+0x5c>
    17d0:	20 31       	cpi	r18, 0x10	; 16
    17d2:	81 f1       	breq	.+96     	; 0x1834 <__ultoa_invert+0x6c>
    17d4:	e8 94       	clt
    17d6:	6f 93       	push	r22
    17d8:	6e 7f       	andi	r22, 0xFE	; 254
    17da:	6e 5f       	subi	r22, 0xFE	; 254
    17dc:	7f 4f       	sbci	r23, 0xFF	; 255
    17de:	8f 4f       	sbci	r24, 0xFF	; 255
    17e0:	9f 4f       	sbci	r25, 0xFF	; 255
    17e2:	af 4f       	sbci	r26, 0xFF	; 255
    17e4:	b1 e0       	ldi	r27, 0x01	; 1
    17e6:	3e d0       	rcall	.+124    	; 0x1864 <__ultoa_invert+0x9c>
    17e8:	b4 e0       	ldi	r27, 0x04	; 4
    17ea:	3c d0       	rcall	.+120    	; 0x1864 <__ultoa_invert+0x9c>
    17ec:	67 0f       	add	r22, r23
    17ee:	78 1f       	adc	r23, r24
    17f0:	89 1f       	adc	r24, r25
    17f2:	9a 1f       	adc	r25, r26
    17f4:	a1 1d       	adc	r26, r1
    17f6:	68 0f       	add	r22, r24
    17f8:	79 1f       	adc	r23, r25
    17fa:	8a 1f       	adc	r24, r26
    17fc:	91 1d       	adc	r25, r1
    17fe:	a1 1d       	adc	r26, r1
    1800:	6a 0f       	add	r22, r26
    1802:	71 1d       	adc	r23, r1
    1804:	81 1d       	adc	r24, r1
    1806:	91 1d       	adc	r25, r1
    1808:	a1 1d       	adc	r26, r1
    180a:	20 d0       	rcall	.+64     	; 0x184c <__ultoa_invert+0x84>
    180c:	09 f4       	brne	.+2      	; 0x1810 <__ultoa_invert+0x48>
    180e:	68 94       	set
    1810:	3f 91       	pop	r19
    1812:	2a e0       	ldi	r18, 0x0A	; 10
    1814:	26 9f       	mul	r18, r22
    1816:	11 24       	eor	r1, r1
    1818:	30 19       	sub	r19, r0
    181a:	30 5d       	subi	r19, 0xD0	; 208
    181c:	31 93       	st	Z+, r19
    181e:	de f6       	brtc	.-74     	; 0x17d6 <__ultoa_invert+0xe>
    1820:	cf 01       	movw	r24, r30
    1822:	08 95       	ret
    1824:	46 2f       	mov	r20, r22
    1826:	47 70       	andi	r20, 0x07	; 7
    1828:	40 5d       	subi	r20, 0xD0	; 208
    182a:	41 93       	st	Z+, r20
    182c:	b3 e0       	ldi	r27, 0x03	; 3
    182e:	0f d0       	rcall	.+30     	; 0x184e <__ultoa_invert+0x86>
    1830:	c9 f7       	brne	.-14     	; 0x1824 <__ultoa_invert+0x5c>
    1832:	f6 cf       	rjmp	.-20     	; 0x1820 <__ultoa_invert+0x58>
    1834:	46 2f       	mov	r20, r22
    1836:	4f 70       	andi	r20, 0x0F	; 15
    1838:	40 5d       	subi	r20, 0xD0	; 208
    183a:	4a 33       	cpi	r20, 0x3A	; 58
    183c:	18 f0       	brcs	.+6      	; 0x1844 <__ultoa_invert+0x7c>
    183e:	49 5d       	subi	r20, 0xD9	; 217
    1840:	31 fd       	sbrc	r19, 1
    1842:	40 52       	subi	r20, 0x20	; 32
    1844:	41 93       	st	Z+, r20
    1846:	02 d0       	rcall	.+4      	; 0x184c <__ultoa_invert+0x84>
    1848:	a9 f7       	brne	.-22     	; 0x1834 <__ultoa_invert+0x6c>
    184a:	ea cf       	rjmp	.-44     	; 0x1820 <__ultoa_invert+0x58>
    184c:	b4 e0       	ldi	r27, 0x04	; 4
    184e:	a6 95       	lsr	r26
    1850:	97 95       	ror	r25
    1852:	87 95       	ror	r24
    1854:	77 95       	ror	r23
    1856:	67 95       	ror	r22
    1858:	ba 95       	dec	r27
    185a:	c9 f7       	brne	.-14     	; 0x184e <__ultoa_invert+0x86>
    185c:	00 97       	sbiw	r24, 0x00	; 0
    185e:	61 05       	cpc	r22, r1
    1860:	71 05       	cpc	r23, r1
    1862:	08 95       	ret
    1864:	9b 01       	movw	r18, r22
    1866:	ac 01       	movw	r20, r24
    1868:	0a 2e       	mov	r0, r26
    186a:	06 94       	lsr	r0
    186c:	57 95       	ror	r21
    186e:	47 95       	ror	r20
    1870:	37 95       	ror	r19
    1872:	27 95       	ror	r18
    1874:	ba 95       	dec	r27
    1876:	c9 f7       	brne	.-14     	; 0x186a <__ultoa_invert+0xa2>
    1878:	62 0f       	add	r22, r18
    187a:	73 1f       	adc	r23, r19
    187c:	84 1f       	adc	r24, r20
    187e:	95 1f       	adc	r25, r21
    1880:	a0 1d       	adc	r26, r0
    1882:	08 95       	ret

00001884 <__prologue_saves__>:
    1884:	2f 92       	push	r2
    1886:	3f 92       	push	r3
    1888:	4f 92       	push	r4
    188a:	5f 92       	push	r5
    188c:	6f 92       	push	r6
    188e:	7f 92       	push	r7
    1890:	8f 92       	push	r8
    1892:	9f 92       	push	r9
    1894:	af 92       	push	r10
    1896:	bf 92       	push	r11
    1898:	cf 92       	push	r12
    189a:	df 92       	push	r13
    189c:	ef 92       	push	r14
    189e:	ff 92       	push	r15
    18a0:	0f 93       	push	r16
    18a2:	1f 93       	push	r17
    18a4:	cf 93       	push	r28
    18a6:	df 93       	push	r29
    18a8:	cd b7       	in	r28, 0x3d	; 61
    18aa:	de b7       	in	r29, 0x3e	; 62
    18ac:	ca 1b       	sub	r28, r26
    18ae:	db 0b       	sbc	r29, r27
    18b0:	0f b6       	in	r0, 0x3f	; 63
    18b2:	f8 94       	cli
    18b4:	de bf       	out	0x3e, r29	; 62
    18b6:	0f be       	out	0x3f, r0	; 63
    18b8:	cd bf       	out	0x3d, r28	; 61
    18ba:	09 94       	ijmp

000018bc <__epilogue_restores__>:
    18bc:	2a 88       	ldd	r2, Y+18	; 0x12
    18be:	39 88       	ldd	r3, Y+17	; 0x11
    18c0:	48 88       	ldd	r4, Y+16	; 0x10
    18c2:	5f 84       	ldd	r5, Y+15	; 0x0f
    18c4:	6e 84       	ldd	r6, Y+14	; 0x0e
    18c6:	7d 84       	ldd	r7, Y+13	; 0x0d
    18c8:	8c 84       	ldd	r8, Y+12	; 0x0c
    18ca:	9b 84       	ldd	r9, Y+11	; 0x0b
    18cc:	aa 84       	ldd	r10, Y+10	; 0x0a
    18ce:	b9 84       	ldd	r11, Y+9	; 0x09
    18d0:	c8 84       	ldd	r12, Y+8	; 0x08
    18d2:	df 80       	ldd	r13, Y+7	; 0x07
    18d4:	ee 80       	ldd	r14, Y+6	; 0x06
    18d6:	fd 80       	ldd	r15, Y+5	; 0x05
    18d8:	0c 81       	ldd	r16, Y+4	; 0x04
    18da:	1b 81       	ldd	r17, Y+3	; 0x03
    18dc:	aa 81       	ldd	r26, Y+2	; 0x02
    18de:	b9 81       	ldd	r27, Y+1	; 0x01
    18e0:	ce 0f       	add	r28, r30
    18e2:	d1 1d       	adc	r29, r1
    18e4:	0f b6       	in	r0, 0x3f	; 63
    18e6:	f8 94       	cli
    18e8:	de bf       	out	0x3e, r29	; 62
    18ea:	0f be       	out	0x3f, r0	; 63
    18ec:	cd bf       	out	0x3d, r28	; 61
    18ee:	ed 01       	movw	r28, r26
    18f0:	08 95       	ret

000018f2 <_exit>:
    18f2:	f8 94       	cli

000018f4 <__stop_program>:
    18f4:	ff cf       	rjmp	.-2      	; 0x18f4 <__stop_program>
